(dp1
S'out_4_label'
p2
(dp3
S'length'
p4
I20
sS'unique'
p5
I00
sS'sortable'
p6
I15
sS'sql'
p7
S'CHAR(20)'
p8
sS'notnull'
p9
I00
sS'type'
p10
S'string'
p11
ssS'out_3_cmd'
p12
(dp13
g4
I30
sg5
I00
sg6
I12
sg7
S'CHAR(30)'
p14
sg9
I00
sg10
g11
ssS'out_3_show'
p15
(dp16
S'sortable'
p17
I13
sS'sql'
p18
S'CHAR(1)'
p19
sS'length'
p20
I512
sS'notnull'
p21
I00
sS'unique'
p22
I00
sS'type'
p23
S'boolean'
p24
ssS'out_4_hide'
p25
(dp26
g4
I512
sg5
I00
sg6
I17
sg7
S'CHAR(1)'
p27
sg9
I00
sg10
S'boolean'
p28
ssS'out_1_value'
p29
(dp30
g4
I512
sg5
I00
sg6
I2
sg7
S'CHAR(1)'
p31
sg9
I00
sg10
g28
ssS'out_7_value'
p32
(dp33
g4
I512
sg5
I00
sg6
I26
sg7
S'CHAR(1)'
p34
sg9
I00
sg10
g28
ssS'etiqueta'
p35
(dp36
S'sortable'
p37
I3
sS'sql'
p38
S'CHAR(512)'
p39
sS'length'
p40
I512
sS'notnull'
p41
I00
sS'unique'
p42
I00
sS'type'
p43
S'string'
p44
ssS'out_6_cmd'
p45
(dp46
g4
I30
sg5
I00
sg6
I24
sg7
S'CHAR(30)'
p47
sg9
I00
sg10
g11
ssS'out_7_show'
p48
(dp49
g17
I29
sg18
S'CHAR(1)'
p50
sg20
I512
sg21
I00
sg22
I00
sg23
g24
ssS'out_1_cmd'
p51
(dp52
g4
I30
sg5
I00
sg6
I4
sg7
S'CHAR(30)'
p53
sg9
I00
sg10
g11
ssS'out_2_hide'
p54
(dp55
g4
I512
sg5
I00
sg6
I9
sg7
S'CHAR(1)'
p56
sg9
I00
sg10
g28
ssS'id'
p57
(dp58
g4
I512
sg5
I00
sg6
I1
sg7
S'INTEGER PRIMARY KEY AUTOINCREMENT'
p59
sg9
I00
sg10
S'id'
p60
ssS'out_6_value'
p61
(dp62
g4
I512
sg5
I00
sg6
I22
sg7
S'CHAR(1)'
p63
sg9
I00
sg10
g28
ssS'out_6_hide'
p64
(dp65
g4
I512
sg5
I00
sg6
I25
sg7
S'CHAR(1)'
p66
sg9
I00
sg10
g28
ssS'modified_by'
p67
(dp68
g4
I512
sg5
I00
sg6
I38
sg7
S'INTEGER REFERENCES auth_user (id) ON DELETE CASCADE'
p69
sg9
I00
sg10
S'reference auth_user'
p70
ssS'out_8_label'
p71
(dp72
g4
I20
sg5
I00
sg6
I31
sg7
S'CHAR(20)'
p73
sg9
I00
sg10
g11
ssS'out_5_show'
p74
(dp75
g17
I21
sg18
S'CHAR(1)'
p76
sg20
I512
sg21
I00
sg22
I00
sg23
g24
ssS'out_6_show'
p77
(dp78
g17
I25
sg18
S'CHAR(1)'
p79
sg20
I512
sg21
I00
sg22
I00
sg23
g24
ssS'created_by'
p80
(dp81
g4
I512
sg5
I00
sg6
I36
sg7
S'INTEGER REFERENCES auth_user (id) ON DELETE CASCADE'
p82
sg9
I00
sg10
g70
ssS'out_5_cmd'
p83
(dp84
g4
I30
sg5
I00
sg6
I20
sg7
S'CHAR(30)'
p85
sg9
I00
sg10
g11
ssS'out_7_label'
p86
(dp87
g4
I20
sg5
I00
sg6
I27
sg7
S'CHAR(20)'
p88
sg9
I00
sg10
g11
ssS'out_2_show'
p89
(dp90
g17
I9
sg18
S'CHAR(1)'
p91
sg20
I512
sg21
I00
sg22
I00
sg23
g24
ssS'out_1_label'
p92
(dp93
g4
I20
sg5
I00
sg6
I3
sg7
S'CHAR(20)'
p94
sg9
I00
sg10
g11
ssS'out_4_value'
p95
(dp96
g4
I512
sg5
I00
sg6
I14
sg7
S'CHAR(1)'
p97
sg9
I00
sg10
g28
ssS'out_4_cmd'
p98
(dp99
g4
I30
sg5
I00
sg6
I16
sg7
S'CHAR(30)'
p100
sg9
I00
sg10
g11
ssS'out_3_value'
p101
(dp102
g4
I512
sg5
I00
sg6
I10
sg7
S'CHAR(1)'
p103
sg9
I00
sg10
g28
ssS'out_3_label'
p104
(dp105
g4
I20
sg5
I00
sg6
I11
sg7
S'CHAR(20)'
p106
sg9
I00
sg10
g11
ssS'is_active'
p107
(dp108
g4
I512
sg5
I00
sg6
I34
sg7
S'CHAR(1)'
p109
sg9
I00
sg10
g28
ssS'boton'
p110
(dp111
g37
I2
sg38
S'CHAR(1)'
p112
sg40
I512
sg41
I00
sg42
I00
sg43
S'boolean'
p113
ssS'out_1_hide'
p114
(dp115
g4
I512
sg5
I00
sg6
I5
sg7
S'CHAR(1)'
p116
sg9
I00
sg10
g28
ssS'out_3_hide'
p117
(dp118
g4
I512
sg5
I00
sg6
I13
sg7
S'CHAR(1)'
p119
sg9
I00
sg10
g28
ssS'modified_on'
p120
(dp121
g4
I512
sg5
I00
sg6
I37
sg7
S'TIMESTAMP'
p122
sg9
I00
sg10
S'datetime'
p123
ssS'out_5_value'
p124
(dp125
g4
I512
sg5
I00
sg6
I18
sg7
S'CHAR(1)'
p126
sg9
I00
sg10
g28
ssS'out_8_show'
p127
(dp128
g17
I33
sg18
S'CHAR(1)'
p129
sg20
I512
sg21
I00
sg22
I00
sg23
g24
ssS'out_5_hide'
p130
(dp131
g4
I512
sg5
I00
sg6
I21
sg7
S'CHAR(1)'
p132
sg9
I00
sg10
g28
ssS'out_6_label'
p133
(dp134
g4
I20
sg5
I00
sg6
I23
sg7
S'CHAR(20)'
p135
sg9
I00
sg10
g11
ssS'out_4_show'
p136
(dp137
g17
I17
sg18
S'CHAR(1)'
p138
sg20
I512
sg21
I00
sg22
I00
sg23
g24
ssS'out_7_hide'
p139
(dp140
g4
I512
sg5
I00
sg6
I29
sg7
S'CHAR(1)'
p141
sg9
I00
sg10
g28
ssS'created_on'
p142
(dp143
g4
I512
sg5
I00
sg6
I35
sg7
S'TIMESTAMP'
p144
sg9
I00
sg10
g123
ssS'out_5_label'
p145
(dp146
g4
I20
sg5
I00
sg6
I19
sg7
S'CHAR(20)'
p147
sg9
I00
sg10
g11
ssS'out_2_value'
p148
(dp149
g4
I512
sg5
I00
sg6
I6
sg7
S'CHAR(1)'
p150
sg9
I00
sg10
g28
ssS'out_2_label'
p151
(dp152
g4
I20
sg5
I00
sg6
I7
sg7
S'CHAR(20)'
p153
sg9
I00
sg10
g11
ssS'out_8_hide'
p154
(dp155
g4
I512
sg5
I00
sg6
I33
sg7
S'CHAR(1)'
p156
sg9
I00
sg10
g28
ssS'out_1_show'
p157
(dp158
g17
I5
sg18
S'CHAR(1)'
p159
sg20
I512
sg21
I00
sg22
I00
sg23
g24
ssS'out_2_cmd'
p160
(dp161
g4
I30
sg5
I00
sg6
I8
sg7
S'CHAR(30)'
p162
sg9
I00
sg10
g11
ssS'out_8_value'
p163
(dp164
g4
I512
sg5
I00
sg6
I30
sg7
S'CHAR(1)'
p165
sg9
I00
sg10
g28
ssS'out_8_cmd'
p166
(dp167
g4
I30
sg5
I00
sg6
I32
sg7
S'CHAR(30)'
p168
sg9
I00
sg10
g11
ssS'out_7_cmd'
p169
(dp170
g4
I30
sg5
I00
sg6
I28
sg7
S'CHAR(30)'
p171
sg9
I00
sg10
g11
ss.