(dp1
S'output'
p2
S"<type 'exceptions.NameError'> name 'visits' is not defined"
p3
sS'layer'
p4
S'C:\\web2py\\applications\\sinai\\views\\default/admin.html'
p5
sS'code'
p6
S'response.write(\'<!--[if HTML5]><![endif]-->\\n<!DOCTYPE html>\\n<!-- paulirish.com/2008/conditional-stylesheets-vs-css-hacks-answer-neither/ -->\\n<!--[if lt IE 7]><html class="ie ie6 ie-lte9 ie-lte8 ie-lte7 no-js" lang="\', escape=False)\nresponse.write(T.accepted_language or \'en\')\nresponse.write(\'"> <![endif]-->\\n<!--[if IE 7]><html class="ie ie7 ie-lte9 ie-lte8 ie-lte7 no-js" lang="\', escape=False)\nresponse.write(T.accepted_language or \'en\')\nresponse.write(\'"> <![endif]-->\\n<!--[if IE 8]><html class="ie ie8 ie-lte9 ie-lte8 no-js" lang="\', escape=False)\nresponse.write(T.accepted_language or \'en\')\nresponse.write(\'"> <![endif]-->\\n<!--[if IE 9]><html class="ie9 ie-lte9 no-js" lang="\', escape=False)\nresponse.write(T.accepted_language or \'en\')\nresponse.write(\'"> <![endif]-->\\n<!--[if (gt IE 9)|!(IE)]><!--> <html class="no-js" lang="\', escape=False)\nresponse.write(T.accepted_language or \'en\')\nresponse.write(\'"> <!--<![endif]-->\\n    <head>\\n        <meta charset="utf-8">\\n        <!-- www.phpied.com/conditional-comments-block-downloads/ -->\\n        <!-- Always force latest IE rendering engine\\n            (even in intranet) & Chrome Frame\\n             Remove this if you use the .htaccess -->\\n        <meta http-equiv="X-UA-Compatible" content="IE=edge\', escape=False)\nresponse.write(not request.is_local and \',chrome=1\' or \'\')\nresponse.write(\'">\\n        <!--  Mobile Viewport Fix\\n              j.mp/mobileviewport & davidbcalhoun.com/2010/viewport-metatag\\n              device-width: Occupy full width of the screen in its current orientation\\n              initial-scale = 1.0 retains dimensions instead of zooming out if page height > device height\\n              user-scalable = yes allows the user to zoom in -->\\n        <meta name="viewport" content="width=device-width, initial-scale=1.0">\\n        <title>\', escape=False)\nresponse.write(response.title or request.application)\nresponse.write(\'</title>\\n        <!-- http://dev.w3.org/html5/markup/meta.name.html -->\\n        <meta name="application-name" content="\', escape=False)\nresponse.write(request.application)\nresponse.write(\'">\\n        <!-- Speaking of Google, don\\\'t forget to set your site up:\\n               http://google.com/webmasters -->\\n        <meta name="google-site-verification" content="">\\n        <!-- include stylesheets -->\\n        \', escape=False)\nresponse.files.insert(0,URL(\'static\',\'css/web2py.css\'))\nresponse.files.insert(1,URL(\'static\',\'css/bootstrap.min.css\'))\nresponse.files.insert(2,URL(\'static\',\'css/bootstrap-theme.min.css\'))\nresponse.files.insert(3,URL(\'static\',\'css/web2py-bootstrap3.css\'))\nresponse.files.insert(4,URL(\'static\',\'iToggle-master/css/style.css\'))\nresponse.write(\'\\n        <!-- All JavaScript at the bottom, except for Modernizr which enables HTML5 elements & feature detects -->\\n        <!-- <script src="\', escape=False)\nresponse.write(URL(\'static\',\'js/modernizr.custom.js\'))\nresponse.write(\'"></script> -->\\n        <!-- Respond.js for the support of media queries in IE8\\n             If you need to use a local copy of respond.js download it in static/js sub-folder, and replace the script link\\n             in the following conditional comment with <script src="\', escape=False)\nresponse.write(URL(\'static\',\'js/respond.min.js\'))\nresponse.write(\'"></script> -->\\n        <!--[if lt IE 9]>\\n        <script src="https://oss.maxcdn.com/libs/respond.js/1.3.0/respond.min.js"></script>\\n        <![endif]-->\\n        <!-- Favicons -->\\n        <link rel="shortcut icon" href="\', escape=False)\nresponse.write(URL(\'static\',\'images/favicon.ico\'))\nresponse.write(\'" type="image/x-icon">\\n        <link rel="apple-touch-icon" href="\', escape=False)\nresponse.write(URL(\'static\',\'images/favicon.png\'))\nresponse.write(\'">\\n        \', escape=False)\nresponse.write(\'<script type="text/javascript"><!--\\n    // These variables are used by the web2py_ajax_init function in web2py_ajax.js (which is loaded below).\\n    var w2p_ajax_confirm_message = "\', escape=False)\nresponse.write(T(\'Are you sure you want to delete this object?\'))\nresponse.write(\'";\\n    var w2p_ajax_disable_with_message = "\', escape=False)\nresponse.write(T(\'Working...\'))\nresponse.write(\'";\\n    var w2p_ajax_date_format = "\', escape=False)\nresponse.write(T(\'%Y-%m-%d\'))\nresponse.write(\'";\\n    var w2p_ajax_datetime_format = "\', escape=False)\nresponse.write(T(\'%Y-%m-%d %H:%M:%S\'))\nresponse.write(\'";\\n    var ajax_error_500 = \\\'\', escape=False)\nresponse.write(T.M(\'An error occured, please [[reload %s]] the page\') % URL(args=request.args, vars=request.get_vars))\nresponse.write("\'\\n    //--></script>\\n", escape=False)\nresponse.files.insert(0,URL(\'static\',\'js/jquery.js\'))\nresponse.files.insert(1,URL(\'static\',\'css/calendar.css\'))\nresponse.files.insert(2,URL(\'static\',\'js/calendar.js\'))\nresponse.files.insert(3,URL(\'static\',\'js/web2py.js\'))\nresponse.include_meta()\nresponse.include_files()\nresponse.write(\'\\n\', escape=False)\nresponse.write(\'\\n        \', escape=False)\nresponse.write(\'\\n        \', escape=False)\n# using sidebars need to know what sidebar you want to use\nmc0 = \'col-md-12\'\nmc1 = \'col-md-9\'\nmc2 = \'col-md-6\'\nleft_sidebar_enabled = globals().get(\'left_sidebar_enabled\', False)\nright_sidebar_enabled = globals().get(\'right_sidebar_enabled\', False)\nmiddle_column = {0: mc0, 1: mc1, 2: mc2}[\n(left_sidebar_enabled and 1 or 0)+(right_sidebar_enabled and 1 or 0)]\nresponse.write(\'\\n    </head>\\n    <body>\\n        <div class="flash alert alert-dismissable">\', escape=False)\nresponse.write(response.flash or \'\')\nresponse.write(\'</div>\\n<!-- Navbar =================================================================== -->\\n        <nav class="navbar navbar-inverse navbar-fixed-top" role="navigation">\\n            <div class="container">\\n                <div class="navbar-header">\\n                    <button type="button" class="navbar-toggle" data-toggle="collapse" data-target=".navbar-collapse">\\n                        <span class="sr-only">Toggle navigation</span>\\n                        <span class="icon-bar"></span>\\n                        <span class="icon-bar"></span>\\n                        <span class="icon-bar"></span>\\n                    </button>\\n                    \', escape=False)\nresponse.write(response.logo or \'\')\nresponse.write(\'\\n                </div>\\n                <div class="collapse navbar-collapse navbar-ex1-collapse">\\n                    <ul class="nav navbar-nav navbar-right">\\n                        \', escape=False)\nresponse.write(\'auth\' in globals() and bs3.navbar() or \'\')\nresponse.write(\'\\n                    </ul>\\n                    \', escape=False)\nif response.menu:\n    response.write(\'\\n                    \', escape=False)\n    response.write(bs3.menu())\n    response.write(\'\\n                    \', escape=False)\n    pass\nresponse.write(\'\\n                </div>\\n            </div>\\n        </nav>\\n<!-- Masthead ================================================================= -->\\n        <!--<header class="container">\\n            <div class="page-header">\\n                \', escape=False)\nif response.title:\n    response.write(\'\\n                <h1>\', escape=False)\n    response.write(response.title)\n    response.write(\'\\n                <small>\', escape=False)\n    response.write(response.subtitle or \'\')\n    response.write(\'</small></h1>\\n                \', escape=False)\n    pass\nresponse.write(\'\\n            </div>\\n        </header>-->\\n<!-- Main ===================================================================== -->\\n        <main class="container" id="content" role="main">\\n            <div class="row">\\n                \', escape=False)\nif left_sidebar_enabled:\n    response.write(\'\\n<!--    left sidebar ---------------------------------------------------------- -->\\n                <div class="col-md-3">\\n                    \', escape=False)\n    response.write(\'\\n                    \', escape=False)\n    response.write(\'\\n                </div>\\n                \', escape=False)\n    pass\nresponse.write(\'\\n<!--    central column -------------------------------------------------------- -->\\n                <div class="\', escape=False)\nresponse.write(middle_column)\nresponse.write(\'">\\n                    \', escape=False)\nresponse.write(\'\\n                    \', escape=False)\nresponse.write(\'\\n\\n<style type="text/css">\\n.ui-jqgrid tr.jqgrow td {\\n    height: 70px;\\n    white-space: normal;\\n}\\n   th.ui-th-column div{\\n        white-space:normal !important;\\n        height:auto !important;\\n        padding:2px;\\n    }  \\n\\n</style>\\n<style type="text/css">\\n  .box{\\n    border-radius: 10px 10px 10px 10px;\\n    -moz-border-radius: 10px 10px 10px 10px;\\n    -webkit-border-radius: 10px 10px 10px 10px;\\n    border: 2px solid #18bc9c;/*gris-8f8d8f verde(navbar)-18bc9c*/\\n    background-color: #2c3e50;\\n    -webkit-box-shadow: -8px 10px 14px -3px rgba(189,179,189,1);\\n    -moz-box-shadow: -8px 10px 14px -3px rgba(189,179,189,1);\\n    box-shadow: -8px 10px 14px -3px rgba(189,179,189,1);\\n  }\\n\\n</style>\\n\\n<script type="text/javascript" >\\njQuery(document).ready(function(){\\n  jQuery("#list").jqGrid({\\n    url:\\\'\', escape=False)\nresponse.write(URL(r=request,f=\'call\',args=[\'json\',\'get_rows\']))\nresponse.write(\'\\\',\\n    data: "{}",\\n    datatype: \\\'json\\\',\\n    mtype: \\\'GET\\\',\\n    contentType: "application/json; charset=utf-8",\\n    cellEdit: false,\\n    cellsubmit:\\\'remote\\\',\\n    cellurl: \\\'\', escape=False)\nresponse.write(URL(r=request,f=\'call\',args=[\'json\',\'save_cell\']))\nresponse.write(\'\\\',\\n    complete: function(jsondata, stat) {\\n        if (stat == "success") {\\n            var thegrid = jQuery("#list")[0];\\n            thegrid.addJSONData(JSON.parse(jsondata.responseText).d);\\n        }\\n    },\\n\\n    \\n    \\n\\n    colNames:[\\\'Recibido\\\',\\\'Nombre\\\',\\\'Correo\\\',\\\'Telefono\\\',\\\'Mensaje\\\',\\\'\\\'],\\n    colModel :[\\n      {name:\\\'created_on\\\', index:\\\'created_on\\\',editable:false, width:150,searchoptions:{sopt:[\\\'cn\\\', \\\'nc\\\']}},\\n      {name:\\\'nombre\\\', index:\\\'nombre\\\',editable:false, width:150,searchoptions:{sopt:[\\\'cn\\\', \\\'nc\\\']}},\\n      {name:\\\'correo\\\', index:\\\'correo\\\',editable:false, width:150,searchoptions:{sopt:[\\\'cn\\\', \\\'nc\\\']}},\\n      {name:\\\'telefono\\\', index:\\\'telefono\\\',editable:false, width:150,searchoptions:{sopt:[\\\'cn\\\', \\\'nc\\\']}},\\n      {name:\\\'mensaje\\\', index:\\\'mensaje\\\',editable:false, width:400,searchoptions:{sopt:[\\\'cn\\\', \\\'nc\\\']}},\\n      {name:\\\'eliminar\\\', index:\\\'eliminar\\\',editable:false, width:100,searchoptions:{sopt:[\\\'cn\\\', \\\'nc\\\']}},\\n      \\n      \\n    ],\\n    pager: \\\'#pager\\\',\\n    rowNum:5,\\n    rowList:[5,10,20],\\n    sortname: \\\'created_on\\\',\\n    sortorder: \\\'desc\\\',\\n    viewrecords: true,\\n    caption: \\\'Mensajes recibidos\\\',\\n    altRows:true,\\n    height: \\\'auto\\\',\\n    width: \\\'auto\\\',\\n    \\n \\n  });\\n\\n\\n\\n});\\n</script>\\n\\n<script type="text/javascript" >\\njQuery(document).ready(function(){\\n  jQuery("#list_versos").jqGrid({\\n    url:\\\'\', escape=False)\nresponse.write(URL(r=request,f=\'call\',args=[\'json\',\'get_rows_versos\']))\nresponse.write(\'\\\',\\n    data: "{}",\\n    datatype: \\\'json\\\',\\n    mtype: \\\'GET\\\',\\n    contentType: "application/json; charset=utf-8",\\n    cellEdit: true,\\n    cellsubmit:\\\'remote\\\',\\n    cellurl: \\\'\', escape=False)\nresponse.write(URL(r=request,f=\'call\',args=[\'json\',\'save_cell_versos\']))\nresponse.write(\'\\\',\\n    complete: function(jsondata, stat) {\\n        if (stat == "success") {\\n            var thegrid = jQuery("#list")[0];\\n            thegrid.addJSONData(JSON.parse(jsondata.responseText).d);\\n        }\\n    },\\n\\n    colNames:[\\\'#\\\',\\\'Verso\\\',\\\'Cita\\\',\\\'\\\'],\\n    colModel :[\\n      \\n      {name:\\\'numero\\\', index:\\\'numero\\\',editable:false, width:30,searchoptions:{sopt:[\\\'cn\\\', \\\'nc\\\']}},\\n      {name:\\\'verso\\\', index:\\\'verso\\\',editable:true, width:850,searchoptions:{sopt:[\\\'cn\\\', \\\'nc\\\']}},\\n      {name:\\\'cita\\\', index:\\\'cita\\\',editable:true, width:120,searchoptions:{sopt:[\\\'cn\\\', \\\'nc\\\']}},\\n      {name:\\\'eliminar\\\', index:\\\'eliminar\\\',editable:false, width:100,searchoptions:{sopt:[\\\'cn\\\', \\\'nc\\\']}},\\n      \\n    ],\\n    pager: \\\'#pager_versos\\\',\\n    rowNum:5,\\n    rowList:[5,10,20],\\n    sortname: \\\'numero\\\',\\n    sortorder: \\\'asc\\\',\\n    viewrecords: true,\\n    caption: \\\'Versos B\\xc3\\xadblicos\\\',\\n    altRows:true,\\n    height: \\\'auto\\\',\\n    width: \\\'auto\\\',\\n    \\n \\n  });\\n\\n\\n\\n});\\n</script>\\n\\n<script type="text/javascript" >\\njQuery(document).ready(function(){\\n  jQuery("#list_verses").jqGrid({\\n    url:\\\'\', escape=False)\nresponse.write(URL(r=request,f=\'call\',args=[\'json\',\'get_rows_verses\']))\nresponse.write(\'\\\',\\n    data: "{}",\\n    datatype: \\\'json\\\',\\n    mtype: \\\'GET\\\',\\n    contentType: "application/json; charset=utf-8",\\n    cellEdit: false,\\n    cellsubmit:\\\'remote\\\',\\n    cellurl: \\\'\', escape=False)\nresponse.write(URL(r=request,f=\'call\',args=[\'json\',\'save_cell\']))\nresponse.write(\'\\\',\\n    complete: function(jsondata, stat) {\\n        if (stat == "success") {\\n            var thegrid = jQuery("#list")[0];\\n            thegrid.addJSONData(JSON.parse(jsondata.responseText).d);\\n        }\\n    },\\n\\n    colNames:[\\\'#\\\',\\\'Verso\\\',\\\'Cita\\\',\\\'\\\'],\\n    colModel :[\\n      \\n      {name:\\\'numero\\\', index:\\\'numero\\\',editable:false, width:30,searchoptions:{sopt:[\\\'cn\\\', \\\'nc\\\']}},\\n      {name:\\\'verso\\\', index:\\\'verso\\\',editable:true, width:800,searchoptions:{sopt:[\\\'cn\\\', \\\'nc\\\']}},\\n      {name:\\\'cita\\\', index:\\\'cita\\\',editable:true, width:120,searchoptions:{sopt:[\\\'cn\\\', \\\'nc\\\']}},\\n      {name:\\\'eliminar\\\', index:\\\'eliminar\\\',editable:false, width:100,searchoptions:{sopt:[\\\'cn\\\', \\\'nc\\\']}},\\n      \\n    ],\\n    pager: \\\'#pager_verses\\\',\\n    rowNum:5,\\n    rowList:[5,10,20],\\n    sortname: \\\'numero\\\',\\n    sortorder: \\\'asc\\\',\\n    viewrecords: true,\\n    caption: \\\'Versos B\\xc3\\xadblicos - Ingl\\xc3\\xa9s\\\',\\n    altRows:true,\\n    height: \\\'auto\\\',\\n    width: \\\'auto\\\',\\n    \\n \\n  });\\n\\n\\n\\n});\\n</script>\\n\\n<ul class="nav nav-tabs">\\n  <li class="active"><a href="#msg" data-toggle="tab">Mensajes Recibidos</a></li>\\n  <li class=""><a href="#vb" data-toggle="tab">Versos B\\xc3\\xadblicos - Espa\\xc3\\xb1ol</a></li>\\n  <li class=""><a href="#vb_en" data-toggle="tab">Versos B\\xc3\\xadblicos - Ingl\\xc3\\xa9s</a></li>\\n  <li class=""><a href="#visits" data-toggle="tab">Visitas a la P\\xc3\\xa1gina</a></li>\\n</ul>\\n\\n<div id="myTabContent" class="tab-content">\\n  <div class="tab-pane fade active in" id="msg">\\n      <hr>\\n      <div class="row box">\\n      <br>\\n        <div class="span12" style="margin-left:32px;">\\n        <table id="list"></table>\\n        <div id="pager"></div>\\n        <br>\\n        </div>\\n      </div><br>\\n  </div>\\n\\n  <div class="tab-pane fade" id="vb">\\n    \\n    <hr>\\n    <div class="row box"><br>\\n      <div class="span12" style="margin-left:32px;">\\n      <table id="list_versos"></table>\\n      <div id="pager_versos"></div>\\n      <br>\\n      </div>\\n    </div><br>\\n  </div>\\n\\n  <div class="tab-pane fade" id="vb_en">\\n    <hr>\\n    <div class="row box"><br>\\n      <div class="span12" style="margin-left:32px;">\\n      <table id="list_verses"></table>\\n      <div id="pager_verses"></div>\\n      <br>\\n      </div>\\n    </div><br>\\n\\n  </div>\\n\\n  <div class="tab-pane fade" id="visits">\\n    <hr>\\n    <div class="row box"><br>\\n      <div class="span12" style="margin-left:32px;">\\n        <h3><i class="fa fa-line-chart fa-2x"></i>&nbsp;&nbsp;Visitas a la p\\xc3\\xa1gina: <b> \', escape=False)\nresponse.write(visits.visits)\nresponse.write(\'</b></h3>\\n        <h6>Desde 11/10/2014 <small>(anterior a esa fecha 400 +)</small></h6>\\n        <br>\\n      </div>\\n    </div><br>\\n\\n  </div>\\n  \\n</div>\\n\\n\\n\\n\', escape=False)\nresponse.write(\'\\n                    \', escape=False)\nresponse.write(\'\\n                </div>\\n                \', escape=False)\nif right_sidebar_enabled:\n    response.write(\'\\n<!--    right sidebar --------------------------------------------------------- -->\\n                <div class="col-md-3">\\n                    \', escape=False)\n    response.write(\'\\n                    \', escape=False)\n    response.write(\'\\n                </div>\\n                \', escape=False)\n    pass\nresponse.write(\'\\n            </div>\\n        </main>\\n<!-- Footer =================================================================== -->\\n        <footer id="footer" class="container">\\n            <div class="row">\\n                \', escape=False)\nresponse.write(\'\\n                <div class="col-xs-6">\\n                    <p>\', escape=False)\nresponse.write(T(\'Copyright\'))\nresponse.write(\' &#169; \', escape=False)\nresponse.write(request.now.year)\nresponse.write(\'</p>\\n                </div>\\n                <div class="col-xs-6">\\n                    <p class="pull-right">\', escape=False)\nresponse.write(T(\'Powered by\'))\nresponse.write(\' <a href="http://www.web2py.com/">web2py</a></p>\\n                </div>\\n                \', escape=False)\nresponse.write(\'\\n            </div>\\n        </footer>\\n<!-- The javascript =========================================================== -->\\n        <script src="\', escape=False)\nresponse.write(URL(\'static\',\'js/bootstrap.min.js\'))\nresponse.write(\'"></script>\\n        <script src="\', escape=False)\nresponse.write(URL(\'static\',\'js/web2py-bootstrap3.js\'))\nresponse.write(\'"></script>\\n        <script src="\', escape=False)\nresponse.write(URL(\'static\',\'iToggle-master/itoggle.jquery.js\'))\nresponse.write(\'"></script>\\n\\n\\n        \', escape=False)\nresponse.write(\'\\n        \', escape=False)\nif response.google_analytics_id:\n    response.write(\'\\n<!-- Analytics ================================================================ -->\\n        <script src="\', escape=False)\n    response.write(URL(\'static\',\'js/analytics.min.js\'))\n    response.write(\'"></script>\\n        <script type="text/javascript">\\n            analytics.initialize({\\n            \\\'Google Analytics\\\':{trackingId:\\\'\', escape=False)\n    response.write(response.google_analytics_id)\n    response.write("\'}\\n            });\\n        </script>\\n        ", escape=False)\n    pass\nresponse.write(\'\\n<!-- Share ==================================================================== -->\\n        <script src="\', escape=False)\nresponse.write(URL(\'static\',\'js/share.js\',vars=dict(static=URL(\'static\',\'images\'))))\nresponse.write(\'"></script>\\n    </body>\\n</html>\\n\', escape=False)'
p7
sS'snapshot'
p8
(dp9
S'exception'
p10
(dp11
S'__hash__'
p12
S"<method-wrapper '__hash__' of exceptions.NameError object>"
p13
sS'__setattr__'
p14
S"<method-wrapper '__setattr__' of exceptions.NameError object>"
p15
sS'__reduce_ex__'
p16
S'<built-in method __reduce_ex__ of exceptions.NameError object>'
p17
sS'__getslice__'
p18
S"<method-wrapper '__getslice__' of exceptions.NameError object>"
p19
sS'__getitem__'
p20
S"<method-wrapper '__getitem__' of exceptions.NameError object>"
p21
sS'__setstate__'
p22
S'<built-in method __setstate__ of exceptions.NameError object>'
p23
sS'__reduce__'
p24
S'<built-in method __reduce__ of exceptions.NameError object>'
p25
sS'__str__'
p26
S"<method-wrapper '__str__' of exceptions.NameError object>"
p27
sS'__format__'
p28
S'<built-in method __format__ of exceptions.NameError object>'
p29
sS'__getattribute__'
p30
S"<method-wrapper '__getattribute__' of exceptions.NameError object>"
p31
sS'__class__'
p32
S"<type 'exceptions.NameError'>"
p33
sS'__unicode__'
p34
S'<built-in method __unicode__ of exceptions.NameError object>'
p35
sS'__delattr__'
p36
S"<method-wrapper '__delattr__' of exceptions.NameError object>"
p37
sS'__subclasshook__'
p38
S'<built-in method __subclasshook__ of type object>'
p39
sS'__repr__'
p40
S"<method-wrapper '__repr__' of exceptions.NameError object>"
p41
sS'args'
p42
S'("name \'visits\' is not defined",)'
p43
sS'__dict__'
p44
S'{}'
p45
sS'__sizeof__'
p46
S'<built-in method __sizeof__ of exceptions.NameError object>'
p47
sS'__doc__'
p48
S"'Name not found globally.'"
p49
sS'__init__'
p50
S"<method-wrapper '__init__' of exceptions.NameError object>"
p51
sS'__new__'
p52
S'<built-in method __new__ of type object>'
p53
ssS'evalue'
p54
S"name 'visits' is not defined"
p55
sS'request'
p56
cgluon.html
XML_unpickle
p57
(S's\xff|\x00\x00<div><table><tr><td style="font-weight:bold;vertical-align:top;">ajax</td><td style="vertical-align:top;">:</td><td><div>False</div></td></tr><tr><td style="font-weight:bold;vertical-align:top;">application</td><td style="vertical-align:top;">:</td><td><div>sinai</div></td></tr><tr><td style="font-weight:bold;vertical-align:top;">args</td><td style="vertical-align:top;">:</td><td><div><table></table></div></td></tr><tr><td style="font-weight:bold;vertical-align:top;">cid</td><td style="vertical-align:top;">:</td><td><div>None</div></td></tr><tr><td style="font-weight:bold;vertical-align:top;">client</td><td style="vertical-align:top;">:</td><td><div>127.0.0.1</div></td></tr><tr><td style="font-weight:bold;vertical-align:top;">controller</td><td style="vertical-align:top;">:</td><td><div>default</div></td></tr><tr><td style="font-weight:bold;vertical-align:top;">cookies</td><td style="vertical-align:top;">:</td><td><div><table><tr><td style="font-weight:bold;vertical-align:top;">gs_u_GSN-676039-N</td><td style="vertical-align:top;">:</td><td><div>bc8d1f50aac18a2d993c6c0b7090af86:11335:11064:1413503518924<table><tr><td style="font-weight:bold;vertical-align:top;">comment</td><td style="vertical-align:top;">:</td><td><div></div></td></tr><tr><td style="font-weight:bold;vertical-align:top;">domain</td><td style="vertical-align:top;">:</td><td><div></div></td></tr><tr><td style="font-weight:bold;vertical-align:top;">expires</td><td style="vertical-align:top;">:</td><td><div></div></td></tr><tr><td style="font-weight:bold;vertical-align:top;">httponly</td><td style="vertical-align:top;">:</td><td><div></div></td></tr><tr><td style="font-weight:bold;vertical-align:top;">max-age</td><td style="vertical-align:top;">:</td><td><div></div></td></tr><tr><td style="font-weight:bold;vertical-align:top;">path</td><td style="vertical-align:top;">:</td><td><div></div></td></tr><tr><td style="font-weight:bold;vertical-align:top;">secure</td><td style="vertical-align:top;">:</td><td><div></div></td></tr><tr><td style="font-weight:bold;vertical-align:top;">version</td><td style="vertical-align:top;">:</td><td><div></div></td></tr></table></div></td></tr><tr><td style="font-weight:bold;vertical-align:top;">hellobar_1399937793_hide</td><td style="vertical-align:top;">:</td><td><div>0<table><tr><td style="font-weight:bold;vertical-align:top;">comment</td><td style="vertical-align:top;">:</td><td><div></div></td></tr><tr><td style="font-weight:bold;vertical-align:top;">domain</td><td style="vertical-align:top;">:</td><td><div></div></td></tr><tr><td style="font-weight:bold;vertical-align:top;">expires</td><td style="vertical-align:top;">:</td><td><div></div></td></tr><tr><td style="font-weight:bold;vertical-align:top;">httponly</td><td style="vertical-align:top;">:</td><td><div></div></td></tr><tr><td style="font-weight:bold;vertical-align:top;">max-age</td><td style="vertical-align:top;">:</td><td><div></div></td></tr><tr><td style="font-weight:bold;vertical-align:top;">path</td><td style="vertical-align:top;">:</td><td><div></div></td></tr><tr><td style="font-weight:bold;vertical-align:top;">secure</td><td style="vertical-align:top;">:</td><td><div></div></td></tr><tr><td style="font-weight:bold;vertical-align:top;">version</td><td style="vertical-align:top;">:</td><td><div></div></td></tr></table></div></td></tr><tr><td style="font-weight:bold;vertical-align:top;">hellobar_1399937793_variation</td><td style="vertical-align:top;">:</td><td><div>114016<table><tr><td style="font-weight:bold;vertical-align:top;">comment</td><td style="vertical-align:top;">:</td><td><div></div></td></tr><tr><td style="font-weight:bold;vertical-align:top;">domain</td><td style="vertical-align:top;">:</td><td><div></div></td></tr><tr><td style="font-weight:bold;vertical-align:top;">expires</td><td style="vertical-align:top;">:</td><td><div></div></td></tr><tr><td style="font-weight:bold;vertical-align:top;">httponly</td><td style="vertical-align:top;">:</td><td><div></div></td></tr><tr><td style="font-weight:bold;vertical-align:top;">max-age</td><td style="vertical-align:top;">:</td><td><div></div></td></tr><tr><td style="font-weight:bold;vertical-align:top;">path</td><td style="vertical-align:top;">:</td><td><div></div></td></tr><tr><td style="font-weight:bold;vertical-align:top;">secure</td><td style="vertical-align:top;">:</td><td><div></div></td></tr><tr><td style="font-weight:bold;vertical-align:top;">version</td><td style="vertical-align:top;">:</td><td><div></div></td></tr></table></div></td></tr><tr><td style="font-weight:bold;vertical-align:top;">hellobar_current</td><td style="vertical-align:top;">:</td><td><div>1399937793<table><tr><td style="font-weight:bold;vertical-align:top;">comment</td><td style="vertical-align:top;">:</td><td><div></div></td></tr><tr><td style="font-weight:bold;vertical-align:top;">domain</td><td style="vertical-align:top;">:</td><td><div></div></td></tr><tr><td style="font-weight:bold;vertical-align:top;">expires</td><td style="vertical-align:top;">:</td><td><div></div></td></tr><tr><td style="font-weight:bold;vertical-align:top;">httponly</td><td style="vertical-align:top;">:</td><td><div></div></td></tr><tr><td style="font-weight:bold;vertical-align:top;">max-age</td><td style="vertical-align:top;">:</td><td><div></div></td></tr><tr><td style="font-weight:bold;vertical-align:top;">path</td><td style="vertical-align:top;">:</td><td><div></div></td></tr><tr><td style="font-weight:bold;vertical-align:top;">secure</td><td style="vertical-align:top;">:</td><td><div></div></td></tr><tr><td style="font-weight:bold;vertical-align:top;">version</td><td style="vertical-align:top;">:</td><td><div></div></td></tr></table></div></td></tr><tr><td style="font-weight:bold;vertical-align:top;">session_id_admin</td><td style="vertical-align:top;">:</td><td><div>127.0.0.1-2b39115e-6b8a-446a-8ac5-98e652752ab6<table><tr><td style="font-weight:bold;vertical-align:top;">comment</td><td style="vertical-align:top;">:</td><td><div></div></td></tr><tr><td style="font-weight:bold;vertical-align:top;">domain</td><td style="vertical-align:top;">:</td><td><div></div></td></tr><tr><td style="font-weight:bold;vertical-align:top;">expires</td><td style="vertical-align:top;">:</td><td><div></div></td></tr><tr><td style="font-weight:bold;vertical-align:top;">httponly</td><td style="vertical-align:top;">:</td><td><div></div></td></tr><tr><td style="font-weight:bold;vertical-align:top;">max-age</td><td style="vertical-align:top;">:</td><td><div></div></td></tr><tr><td style="font-weight:bold;vertical-align:top;">path</td><td style="vertical-align:top;">:</td><td><div></div></td></tr><tr><td style="font-weight:bold;vertical-align:top;">secure</td><td style="vertical-align:top;">:</td><td><div></div></td></tr><tr><td style="font-weight:bold;vertical-align:top;">version</td><td style="vertical-align:top;">:</td><td><div></div></td></tr></table></div></td></tr><tr><td style="font-weight:bold;vertical-align:top;">session_id_antioquiacc_git</td><td style="vertical-align:top;">:</td><td><div>127.0.0.1-4862de18-17c6-4fc4-a99b-f239a0c7c173<table><tr><td style="font-weight:bold;vertical-align:top;">comment</td><td style="vertical-align:top;">:</td><td><div></div></td></tr><tr><td style="font-weight:bold;vertical-align:top;">domain</td><td style="vertical-align:top;">:</td><td><div></div></td></tr><tr><td style="font-weight:bold;vertical-align:top;">expires</td><td style="vertical-align:top;">:</td><td><div></div></td></tr><tr><td style="font-weight:bold;vertical-align:top;">httponly</td><td style="vertical-align:top;">:</td><td><div></div></td></tr><tr><td style="font-weight:bold;vertical-align:top;">max-age</td><td style="vertical-align:top;">:</td><td><div></div></td></tr><tr><td style="font-weight:bold;vertical-align:top;">path</td><td style="vertical-align:top;">:</td><td><div></div></td></tr><tr><td style="font-weight:bold;vertical-align:top;">secure</td><td style="vertical-align:top;">:</td><td><div></div></td></tr><tr><td style="font-weight:bold;vertical-align:top;">version</td><td style="vertical-align:top;">:</td><td><div></div></td></tr></table></div></td></tr><tr><td style="font-weight:bold;vertical-align:top;">session_id_imgs</td><td style="vertical-align:top;">:</td><td><div>127.0.0.1-6e27ff9c-9da3-4c09-b11f-c6e40388b8d5<table><tr><td style="font-weight:bold;vertical-align:top;">comment</td><td style="vertical-align:top;">:</td><td><div></div></td></tr><tr><td style="font-weight:bold;vertical-align:top;">domain</td><td style="vertical-align:top;">:</td><td><div></div></td></tr><tr><td style="font-weight:bold;vertical-align:top;">expires</td><td style="vertical-align:top;">:</td><td><div></div></td></tr><tr><td style="font-weight:bold;vertical-align:top;">httponly</td><td style="vertical-align:top;">:</td><td><div></div></td></tr><tr><td style="font-weight:bold;vertical-align:top;">max-age</td><td style="vertical-align:top;">:</td><td><div></div></td></tr><tr><td style="font-weight:bold;vertical-align:top;">path</td><td style="vertical-align:top;">:</td><td><div></div></td></tr><tr><td style="font-weight:bold;vertical-align:top;">secure</td><td style="vertical-align:top;">:</td><td><div></div></td></tr><tr><td style="font-weight:bold;vertical-align:top;">version</td><td style="vertical-align:top;">:</td><td><div></div></td></tr></table></div></td></tr><tr><td style="font-weight:bold;vertical-align:top;">session_id_imgs_git</td><td style="vertical-align:top;">:</td><td><div>127.0.0.1-da548d95-4c9a-4d2c-956f-5e1f00265291<table><tr><td style="font-weight:bold;vertical-align:top;">comment</td><td style="vertical-align:top;">:</td><td><div></div></td></tr><tr><td style="font-weight:bold;vertical-align:top;">domain</td><td style="vertical-align:top;">:</td><td><div></div></td></tr><tr><td style="font-weight:bold;vertical-align:top;">expires</td><td style="vertical-align:top;">:</td><td><div></div></td></tr><tr><td style="font-weight:bold;vertical-align:top;">httponly</td><td style="vertical-align:top;">:</td><td><div></div></td></tr><tr><td style="font-weight:bold;vertical-align:top;">max-age</td><td style="vertical-align:top;">:</td><td><div></div></td></tr><tr><td style="font-weight:bold;vertical-align:top;">path</td><td style="vertical-align:top;">:</td><td><div></div></td></tr><tr><td style="font-weight:bold;vertical-align:top;">secure</td><td style="vertical-align:top;">:</td><td><div></div></td></tr><tr><td style="font-weight:bold;vertical-align:top;">version</td><td style="vertical-align:top;">:</td><td><div></div></td></tr></table></div></td></tr><tr><td style="font-weight:bold;vertical-align:top;">session_id_sinai</td><td style="vertical-align:top;">:</td><td><div>127.0.0.1-06fe836c-e038-447c-bfac-bcc5d95ba5b6<table><tr><td style="font-weight:bold;vertical-align:top;">comment</td><td style="vertical-align:top;">:</td><td><div></div></td></tr><tr><td style="font-weight:bold;vertical-align:top;">domain</td><td style="vertical-align:top;">:</td><td><div></div></td></tr><tr><td style="font-weight:bold;vertical-align:top;">expires</td><td style="vertical-align:top;">:</td><td><div></div></td></tr><tr><td style="font-weight:bold;vertical-align:top;">httponly</td><td style="vertical-align:top;">:</td><td><div></div></td></tr><tr><td style="font-weight:bold;vertical-align:top;">max-age</td><td style="vertical-align:top;">:</td><td><div></div></td></tr><tr><td style="font-weight:bold;vertical-align:top;">path</td><td style="vertical-align:top;">:</td><td><div></div></td></tr><tr><td style="font-weight:bold;vertical-align:top;">secure</td><td style="vertical-align:top;">:</td><td><div></div></td></tr><tr><td style="font-weight:bold;vertical-align:top;">version</td><td style="vertical-align:top;">:</td><td><div></div></td></tr></table></div></td></tr></table></div></td></tr><tr><td style="font-weight:bold;vertical-align:top;">env</td><td style="vertical-align:top;">:</td><td><div><table><tr><td style="font-weight:bold;vertical-align:top;">HTTP_ACCEPT</td><td style="vertical-align:top;">:</td><td><div>text/html,application/xhtml+xml,application/xml;q=0.9,image/webp,*/*;q=0.8</div></td></tr><tr><td style="font-weight:bold;vertical-align:top;">HTTP_ACCEPT_ENCODING</td><td style="vertical-align:top;">:</td><td><div>gzip,deflate,sdch</div></td></tr><tr><td style="font-weight:bold;vertical-align:top;">HTTP_ACCEPT_LANGUAGE</td><td style="vertical-align:top;">:</td><td><div>es-ES,es;q=0.8</div></td></tr><tr><td style="font-weight:bold;vertical-align:top;">HTTP_CACHE_CONTROL</td><td style="vertical-align:top;">:</td><td><div>max-age=0</div></td></tr><tr><td style="font-weight:bold;vertical-align:top;">HTTP_CONNECTION</td><td style="vertical-align:top;">:</td><td><div>keep-alive</div></td></tr><tr><td style="font-weight:bold;vertical-align:top;">HTTP_COOKIE</td><td style="vertical-align:top;">:</td><td><div>__insp_nv=true; __insp_ref=d; __insp_norec_sess=true; __insp_wid=1460258205; __insp_slim=1413503511046; gs_u_GSN-676039-N=bc8d1f50aac18a2d993c6c0b7090af86:11335:11064:1413503518924; hellobar_1399937793_variation=114016; hellobar_current=1399937793; hellobar_1399937793_hide=0; session_id_admin=127.0.0.1-2b39115e-6b8a-446a-8ac5-98e652752ab6; session_id_imgs_git=127.0.0.1-da548d95-4c9a-4d2c-956f-5e1f00265291; session_id_imgs=127.0.0.1-6e27ff9c-9da3-4c09-b11f-c6e40388b8d5; session_id_antioquiacc_git=127.0.0.1-4862de18-17c6-4fc4-a99b-f239a0c7c173; __smToken=a693OJVoVUkLSRevBn927wYp; session_id_sinai=127.0.0.1-06fe836c-e038-447c-bfac-bcc5d95ba5b6</div></td></tr><tr><td style="font-weight:bold;vertical-align:top;">HTTP_HOST</td><td style="vertical-align:top;">:</td><td><div>localhost</div></td></tr><tr><td style="font-weight:bold;vertical-align:top;">HTTP_REFERER</td><td style="vertical-align:top;">:</td><td><div>http://localhost/sinai/default/user/login?_next=/sinai/default/admin</div></td></tr><tr><td style="font-weight:bold;vertical-align:top;">HTTP_USER_AGENT</td><td style="vertical-align:top;">:</td><td><div>Mozilla/5.0 (Windows NT 6.3; WOW64) AppleWebKit/537.36 (KHTML, like Gecko) Chrome/38.0.2125.104 Safari/537.36</div></td></tr><tr><td style="font-weight:bold;vertical-align:top;">PATH_INFO</td><td style="vertical-align:top;">:</td><td><div>/sinai/default/admin</div></td></tr><tr><td style="font-weight:bold;vertical-align:top;">QUERY_STRING</td><td style="vertical-align:top;">:</td><td><div></div></td></tr><tr><td style="font-weight:bold;vertical-align:top;">REMOTE_ADDR</td><td style="vertical-align:top;">:</td><td><div>127.0.0.1</div></td></tr><tr><td style="font-weight:bold;vertical-align:top;">REMOTE_PORT</td><td style="vertical-align:top;">:</td><td><div>58921</div></td></tr><tr><td style="font-weight:bold;vertical-align:top;">REQUEST_METHOD</td><td style="vertical-align:top;">:</td><td><div>GET</div></td></tr><tr><td style="font-weight:bold;vertical-align:top;">SCRIPT_NAME</td><td style="vertical-align:top;">:</td><td><div></div></td></tr><tr><td style="font-weight:bold;vertical-align:top;">SERVER_NAME</td><td style="vertical-align:top;">:</td><td><div>RubenPC</div></td></tr><tr><td style="font-weight:bold;vertical-align:top;">SERVER_PORT</td><td style="vertical-align:top;">:</td><td><div>80</div></td></tr><tr><td style="font-weight:bold;vertical-align:top;">SERVER_PROTOCOL</td><td style="vertical-align:top;">:</td><td><div>HTTP/1.1</div></td></tr><tr><td style="font-weight:bold;vertical-align:top;">SERVER_SOFTWARE</td><td style="vertical-align:top;">:</td><td><div>Rocket 1.2.6</div></td></tr><tr><td style="font-weight:bold;vertical-align:top;">app_folders</td><td style="vertical-align:top;">:</td><td><div>set([&#x27;C:\\\\web2py\\\\applications\\\\antioquiacc_git\\\\&#x27;, &#x27;C:\\\\web2py\\\\applications\\\\admin\\\\&#x27;, &#x27;C:\\\\web2py\\\\applications\\\\sinai\\\\&#x27;, &#x27;C:\\\\web2py\\\\applications\\\\imgs_git\\\\&#x27;, &#x27;C:\\\\web2py\\\\applications\\\\imgs\\\\&#x27;])</div></td></tr><tr><td style="font-weight:bold;vertical-align:top;">applications_parent</td><td style="vertical-align:top;">:</td><td><div>C:\\web2py</div></td></tr><tr><td style="font-weight:bold;vertical-align:top;">cmd_args</td><td style="vertical-align:top;">:</td><td><div><table></table></div></td></tr><tr><td style="font-weight:bold;vertical-align:top;">cmd_options</td><td style="vertical-align:top;">:</td><td><div>&lt;Values at 0x2e07300: {&#x27;verbose&#x27;: False, &#x27;ip&#x27;: &#x27;127.0.0.1&#x27;, &#x27;debuglevel&#x27;: 30, &#x27;with_scheduler&#x27;: False, &#x27;ips&#x27;: [&#x27;fe80::d531:21d5:51dc:1ec5%2&#x27;, &#x27;192.168.0.16&#x27;, &#x27;fe80::65c6:670e:cd2b:af29%11&#x27;, &#x27;192.168.56.1&#x27;], &#x27;shutdown_timeout&#x27;: 5, &#x27;taskbar&#x27;: False, &#x27;with_coverage&#x27;: False, &#x27;port&#x27;: 8000, &#x27;maxthreads&#x27;: None, &#x27;softcron&#x27;: False, &#x27;server_name&#x27;: &#x27;RubenPC&#x27;, &#x27;bpython&#x27;: False, &#x27;nogui&#x27;: False, &#x27;pid_filename&#x27;: &#x27;httpserver.pid&#x27;, &#x27;extcron&#x27;: False, &#x27;runcron&#x27;: False, &#x27;run_system_tests&#x27;: False, &#x27;test&#x27;: None, &#x27;folder&#x27;: &#x27;C:\\\\web2py&#x27;, &#x27;config&#x27;: &#x27;&#x27;, &#x27;minthreads&#x27;: None, &#x27;shell&#x27;: None, &#x27;run&#x27;: &#x27;&#x27;, &#x27;log_filename&#x27;: &#x27;httpserver.log&#x27;, &#x27;profiler_dir&#x27;: None, &#x27;args&#x27;: [&#x27;&#x27;], &#x27;socket_timeout&#x27;: 5, &#x27;ssl_ca_certificate&#x27;: None, &#x27;scheduler&#x27;: None, &#x27;interfaces&#x27;: None, &#x27;ssl_private_key&#x27;: &#x27;&#x27;, &#x27;scheduler_groups&#x27;: None, &#x27;password&#x27;: &#x27;&lt;ask&gt;&#x27;, &#x27;request_queue_size&#x27;: 5, &#x27;ssl_certificate&#x27;: &#x27;&#x27;, &#x27;cronjob&#x27;: False, &#x27;numthreads&#x27;: None, &#x27;quiet&#x27;: False, &#x27;import_models&#x27;: False, &#x27;timeout&#x27;: 10, &#x27;plain&#x27;: False, &#x27;nobanner&#x27;: False}&gt;</div></td></tr><tr><td style="font-weight:bold;vertical-align:top;">db_sessions</td><td style="vertical-align:top;">:</td><td><div>set([])</div></td></tr><tr><td style="font-weight:bold;vertical-align:top;">debugging</td><td style="vertical-align:top;">:</td><td><div>True</div></td></tr><tr><td style="font-weight:bold;vertical-align:top;">gluon_parent</td><td style="vertical-align:top;">:</td><td><div>C:\\web2py</div></td></tr><tr><td style="font-weight:bold;vertical-align:top;">http_accept</td><td style="vertical-align:top;">:</td><td><div>text/html,application/xhtml+xml,application/xml;q=0.9,image/webp,*/*;q=0.8</div></td></tr><tr><td style="font-weight:bold;vertical-align:top;">http_accept_encoding</td><td style="vertical-align:top;">:</td><td><div>gzip,deflate,sdch</div></td></tr><tr><td style="font-weight:bold;vertical-align:top;">http_accept_language</td><td style="vertical-align:top;">:</td><td><div>es-ES,es;q=0.8</div></td></tr><tr><td style="font-weight:bold;vertical-align:top;">http_cache_control</td><td style="vertical-align:top;">:</td><td><div>max-age=0</div></td></tr><tr><td style="font-weight:bold;vertical-align:top;">http_connection</td><td style="vertical-align:top;">:</td><td><div>keep-alive</div></td></tr><tr><td style="font-weight:bold;vertical-align:top;">http_cookie</td><td style="vertical-align:top;">:</td><td><div>__insp_nv=true; __insp_ref=d; __insp_norec_sess=true; __insp_wid=1460258205; __insp_slim=1413503511046; gs_u_GSN-676039-N=bc8d1f50aac18a2d993c6c0b7090af86:11335:11064:1413503518924; hellobar_1399937793_variation=114016; hellobar_current=1399937793; hellobar_1399937793_hide=0; session_id_admin=127.0.0.1-2b39115e-6b8a-446a-8ac5-98e652752ab6; session_id_imgs_git=127.0.0.1-da548d95-4c9a-4d2c-956f-5e1f00265291; session_id_imgs=127.0.0.1-6e27ff9c-9da3-4c09-b11f-c6e40388b8d5; session_id_antioquiacc_git=127.0.0.1-4862de18-17c6-4fc4-a99b-f239a0c7c173; __smToken=a693OJVoVUkLSRevBn927wYp; session_id_sinai=127.0.0.1-06fe836c-e038-447c-bfac-bcc5d95ba5b6</div></td></tr><tr><td style="font-weight:bold;vertical-align:top;">http_host</td><td style="vertical-align:top;">:</td><td><div>localhost</div></td></tr><tr><td style="font-weight:bold;vertical-align:top;">http_referer</td><td style="vertical-align:top;">:</td><td><div>http://localhost/sinai/default/user/login?_next=/sinai/default/admin</div></td></tr><tr><td style="font-weight:bold;vertical-align:top;">http_user_agent</td><td style="vertical-align:top;">:</td><td><div>Mozilla/5.0 (Windows NT 6.3; WOW64) AppleWebKit/537.36 (KHTML, like Gecko) Chrome/38.0.2125.104 Safari/537.36</div></td></tr><tr><td style="font-weight:bold;vertical-align:top;">is_jython</td><td style="vertical-align:top;">:</td><td><div>False</div></td></tr><tr><td style="font-weight:bold;vertical-align:top;">is_pypy</td><td style="vertical-align:top;">:</td><td><div>False</div></td></tr><tr><td style="font-weight:bold;vertical-align:top;">is_source</td><td style="vertical-align:top;">:</td><td><div>False</div></td></tr><tr><td style="font-weight:bold;vertical-align:top;">local_hosts</td><td style="vertical-align:top;">:</td><td><div><table><tr><td><div>fe80::d531:21d5:51dc:1ec5%2</div></td></tr><tr><td><div>RubenPC</div></td></tr><tr><td><div>::ffff:127.0.0.1</div></td></tr><tr><td><div>::1</div></td></tr><tr><td><div>192.168.0.16</div></td></tr><tr><td><div>fe80::65c6:670e:cd2b:af29%11</div></td></tr><tr><td><div>127.0.0.1</div></td></tr><tr><td><div>192.168.56.1</div></td></tr></table></div></td></tr><tr><td style="font-weight:bold;vertical-align:top;">path_info</td><td style="vertical-align:top;">:</td><td><div>/sinai/default/admin</div></td></tr><tr><td style="font-weight:bold;vertical-align:top;">query_string</td><td style="vertical-align:top;">:</td><td><div></div></td></tr><tr><td style="font-weight:bold;vertical-align:top;">remote_addr</td><td style="vertical-align:top;">:</td><td><div>127.0.0.1</div></td></tr><tr><td style="font-weight:bold;vertical-align:top;">remote_port</td><td style="vertical-align:top;">:</td><td><div>58921</div></td></tr><tr><td style="font-weight:bold;vertical-align:top;">request_method</td><td style="vertical-align:top;">:</td><td><div>GET</div></td></tr><tr><td style="font-weight:bold;vertical-align:top;">request_uri</td><td style="vertical-align:top;">:</td><td><div>/sinai/default/admin</div></td></tr><tr><td style="font-weight:bold;vertical-align:top;">script_name</td><td style="vertical-align:top;">:</td><td><div></div></td></tr><tr><td style="font-weight:bold;vertical-align:top;">server_name</td><td style="vertical-align:top;">:</td><td><div>RubenPC</div></td></tr><tr><td style="font-weight:bold;vertical-align:top;">server_port</td><td style="vertical-align:top;">:</td><td><div>80</div></td></tr><tr><td style="font-weight:bold;vertical-align:top;">server_protocol</td><td style="vertical-align:top;">:</td><td><div>HTTP/1.1</div></td></tr><tr><td style="font-weight:bold;vertical-align:top;">server_software</td><td style="vertical-align:top;">:</td><td><div>Rocket 1.2.6</div></td></tr><tr><td style="font-weight:bold;vertical-align:top;">web2py_path</td><td style="vertical-align:top;">:</td><td><div>C:\\web2py</div></td></tr><tr><td style="font-weight:bold;vertical-align:top;">web2py_version</td><td style="vertical-align:top;">:</td><td><div>2.8.2-stable+timestamp.2013.11.28.13.54.07</div></td></tr><tr><td style="font-weight:bold;vertical-align:top;">wsgi.errors</td><td style="vertical-align:top;">:</td><td><div>&lt;open file &#x27;&lt;stderr&gt;&#x27;, mode &#x27;w&#x27; at 0x002C60D0&gt;</div></td></tr><tr><td style="font-weight:bold;vertical-align:top;">wsgi.file_wrapper</td><td style="vertical-align:top;">:</td><td><div>&lt;class wsgiref.util.FileWrapper at 0x020B5730&gt;</div></td></tr><tr><td style="font-weight:bold;vertical-align:top;">wsgi.input</td><td style="vertical-align:top;">:</td><td><div>&lt;socket._fileobject object at 0x071253F0&gt;</div></td></tr><tr><td style="font-weight:bold;vertical-align:top;">wsgi.multiprocess</td><td style="vertical-align:top;">:</td><td><div>False</div></td></tr><tr><td style="font-weight:bold;vertical-align:top;">wsgi.multithread</td><td style="vertical-align:top;">:</td><td><div>True</div></td></tr><tr><td style="font-weight:bold;vertical-align:top;">wsgi.run_once</td><td style="vertical-align:top;">:</td><td><div>False</div></td></tr><tr><td style="font-weight:bold;vertical-align:top;">wsgi.url_scheme</td><td style="vertical-align:top;">:</td><td><div>http</div></td></tr><tr><td style="font-weight:bold;vertical-align:top;">wsgi.version</td><td style="vertical-align:top;">:</td><td><div><table><tr><td><div>1</div></td></tr><tr><td><div>0</div></td></tr></table></div></td></tr><tr><td style="font-weight:bold;vertical-align:top;">wsgi_errors</td><td style="vertical-align:top;">:</td><td><div>&lt;open file &#x27;&lt;stderr&gt;&#x27;, mode &#x27;w&#x27; at 0x002C60D0&gt;</div></td></tr><tr><td style="font-weight:bold;vertical-align:top;">wsgi_file_wrapper</td><td style="vertical-align:top;">:</td><td><div>&lt;class wsgiref.util.FileWrapper at 0x020B5730&gt;</div></td></tr><tr><td style="font-weight:bold;vertical-align:top;">wsgi_input</td><td style="vertical-align:top;">:</td><td><div>&lt;socket._fileobject object at 0x071253F0&gt;</div></td></tr><tr><td style="font-weight:bold;vertical-align:top;">wsgi_multiprocess</td><td style="vertical-align:top;">:</td><td><div>False</div></td></tr><tr><td style="font-weight:bold;vertical-align:top;">wsgi_multithread</td><td style="vertical-align:top;">:</td><td><div>True</div></td></tr><tr><td style="font-weight:bold;vertical-align:top;">wsgi_run_once</td><td style="vertical-align:top;">:</td><td><div>False</div></td></tr><tr><td style="font-weight:bold;vertical-align:top;">wsgi_url_scheme</td><td style="vertical-align:top;">:</td><td><div>http</div></td></tr><tr><td style="font-weight:bold;vertical-align:top;">wsgi_version</td><td style="vertical-align:top;">:</td><td><div><table><tr><td><div>1</div></td></tr><tr><td><div>0</div></td></tr></table></div></td></tr></table></div></td></tr><tr><td style="font-weight:bold;vertical-align:top;">extension</td><td style="vertical-align:top;">:</td><td><div>html</div></td></tr><tr><td style="font-weight:bold;vertical-align:top;">folder</td><td style="vertical-align:top;">:</td><td><div>C:\\web2py\\applications\\sinai\\</div></td></tr><tr><td style="font-weight:bold;vertical-align:top;">function</td><td style="vertical-align:top;">:</td><td><div>admin</div></td></tr><tr><td style="font-weight:bold;vertical-align:top;">global_settings</td><td style="vertical-align:top;">:</td><td><div><table><tr><td style="font-weight:bold;vertical-align:top;">app_folders</td><td style="vertical-align:top;">:</td><td><div>set([&#x27;C:\\\\web2py\\\\applications\\\\antioquiacc_git\\\\&#x27;, &#x27;C:\\\\web2py\\\\applications\\\\admin\\\\&#x27;, &#x27;C:\\\\web2py\\\\applications\\\\sinai\\\\&#x27;, &#x27;C:\\\\web2py\\\\applications\\\\imgs_git\\\\&#x27;, &#x27;C:\\\\web2py\\\\applications\\\\imgs\\\\&#x27;])</div></td></tr><tr><td style="font-weight:bold;vertical-align:top;">applications_parent</td><td style="vertical-align:top;">:</td><td><div>C:\\web2py</div></td></tr><tr><td style="font-weight:bold;vertical-align:top;">cmd_args</td><td style="vertical-align:top;">:</td><td><div><table></table></div></td></tr><tr><td style="font-weight:bold;vertical-align:top;">cmd_options</td><td style="vertical-align:top;">:</td><td><div>&lt;Values at 0x2e07300: {&#x27;verbose&#x27;: False, &#x27;ip&#x27;: &#x27;127.0.0.1&#x27;, &#x27;debuglevel&#x27;: 30, &#x27;with_scheduler&#x27;: False, &#x27;ips&#x27;: [&#x27;fe80::d531:21d5:51dc:1ec5%2&#x27;, &#x27;192.168.0.16&#x27;, &#x27;fe80::65c6:670e:cd2b:af29%11&#x27;, &#x27;192.168.56.1&#x27;], &#x27;shutdown_timeout&#x27;: 5, &#x27;taskbar&#x27;: False, &#x27;with_coverage&#x27;: False, &#x27;port&#x27;: 8000, &#x27;maxthreads&#x27;: None, &#x27;softcron&#x27;: False, &#x27;server_name&#x27;: &#x27;RubenPC&#x27;, &#x27;bpython&#x27;: False, &#x27;nogui&#x27;: False, &#x27;pid_filename&#x27;: &#x27;httpserver.pid&#x27;, &#x27;extcron&#x27;: False, &#x27;runcron&#x27;: False, &#x27;run_system_tests&#x27;: False, &#x27;test&#x27;: None, &#x27;folder&#x27;: &#x27;C:\\\\web2py&#x27;, &#x27;config&#x27;: &#x27;&#x27;, &#x27;minthreads&#x27;: None, &#x27;shell&#x27;: None, &#x27;run&#x27;: &#x27;&#x27;, &#x27;log_filename&#x27;: &#x27;httpserver.log&#x27;, &#x27;profiler_dir&#x27;: None, &#x27;args&#x27;: [&#x27;&#x27;], &#x27;socket_timeout&#x27;: 5, &#x27;ssl_ca_certificate&#x27;: None, &#x27;scheduler&#x27;: None, &#x27;interfaces&#x27;: None, &#x27;ssl_private_key&#x27;: &#x27;&#x27;, &#x27;scheduler_groups&#x27;: None, &#x27;password&#x27;: &#x27;&lt;ask&gt;&#x27;, &#x27;request_queue_size&#x27;: 5, &#x27;ssl_certificate&#x27;: &#x27;&#x27;, &#x27;cronjob&#x27;: False, &#x27;numthreads&#x27;: None, &#x27;quiet&#x27;: False, &#x27;import_models&#x27;: False, &#x27;timeout&#x27;: 10, &#x27;plain&#x27;: False, &#x27;nobanner&#x27;: False}&gt;</div></td></tr><tr><td style="font-weight:bold;vertical-align:top;">db_sessions</td><td style="vertical-align:top;">:</td><td><div>set([])</div></td></tr><tr><td style="font-weight:bold;vertical-align:top;">debugging</td><td style="vertical-align:top;">:</td><td><div>True</div></td></tr><tr><td style="font-weight:bold;vertical-align:top;">gluon_parent</td><td style="vertical-align:top;">:</td><td><div>C:\\web2py</div></td></tr><tr><td style="font-weight:bold;vertical-align:top;">is_jython</td><td style="vertical-align:top;">:</td><td><div>False</div></td></tr><tr><td style="font-weight:bold;vertical-align:top;">is_pypy</td><td style="vertical-align:top;">:</td><td><div>False</div></td></tr><tr><td style="font-weight:bold;vertical-align:top;">is_source</td><td style="vertical-align:top;">:</td><td><div>False</div></td></tr><tr><td style="font-weight:bold;vertical-align:top;">local_hosts</td><td style="vertical-align:top;">:</td><td><div><table><tr><td><div>fe80::d531:21d5:51dc:1ec5%2</div></td></tr><tr><td><div>RubenPC</div></td></tr><tr><td><div>::ffff:127.0.0.1</div></td></tr><tr><td><div>::1</div></td></tr><tr><td><div>192.168.0.16</div></td></tr><tr><td><div>fe80::65c6:670e:cd2b:af29%11</div></td></tr><tr><td><div>127.0.0.1</div></td></tr><tr><td><div>192.168.56.1</div></td></tr></table></div></td></tr><tr><td style="font-weight:bold;vertical-align:top;">web2py_version</td><td style="vertical-align:top;">:</td><td><div>2.8.2-stable+timestamp.2013.11.28.13.54.07</div></td></tr></table></div></td></tr><tr><td style="font-weight:bold;vertical-align:top;">is_https</td><td style="vertical-align:top;">:</td><td><div>False</div></td></tr><tr><td style="font-weight:bold;vertical-align:top;">is_local</td><td style="vertical-align:top;">:</td><td><div>True</div></td></tr><tr><td style="font-weight:bold;vertical-align:top;">is_restful</td><td style="vertical-align:top;">:</td><td><div>False</div></td></tr><tr><td style="font-weight:bold;vertical-align:top;">now</td><td style="vertical-align:top;">:</td><td><div>datetime.datetime(2014, 10, 27, 16, 7, 15, 282000)</div></td></tr><tr><td style="font-weight:bold;vertical-align:top;">raw_args</td><td style="vertical-align:top;">:</td><td><div></div></td></tr><tr><td style="font-weight:bold;vertical-align:top;">raw_extension</td><td style="vertical-align:top;">:</td><td><div>None</div></td></tr><tr><td style="font-weight:bold;vertical-align:top;">url</td><td style="vertical-align:top;">:</td><td><div>/sinai/default/admin</div></td></tr><tr><td style="font-weight:bold;vertical-align:top;">utcnow</td><td style="vertical-align:top;">:</td><td><div>datetime.datetime(2014, 10, 27, 23, 7, 15, 282000)</div></td></tr><tr><td style="font-weight:bold;vertical-align:top;">uuid</td><td style="vertical-align:top;">:</td><td><div>sinai/127.0.0.1.2014-10-27.16-07-15.42f9196c-dfa0-443f-be26-b5ef0f19f9e8</div></td></tr><tr><td style="font-weight:bold;vertical-align:top;">wsgi</td><td style="vertical-align:top;">:</td><td><div>&lt;gluon.main.LazyWSGI object at 0x07234A50&gt;</div></td></tr></table></div>'
tRp58
sS'frames'
p59
(lp60
(dp61
S'file'
p62
S'C:\\home\\mdipierro\\make_web2py\\web2py\\gluon\\restricted.py'
p63
sS'dump'
p64
(dp65
sS'lnum'
p66
I217
sS'lines'
p67
(dp68
sS'call'
p69
S'(code=r"response.write(\'<!--[if HTML5]><![endif]-->\\n<!D...</script>\\n    </body>\\n</html>\\n\', escape=False)", environment={\'A\': <class \'gluon.html.A\'>, \'ANY_OF\': <class \'gluon.validators.ANY_OF\'>, \'Auth\': <class \'gluon.tools.Auth\'>, \'B\': <class \'gluon.html.B\'>, \'BEAUTIFY\': <class \'gluon.html.BEAUTIFY\'>, \'BODY\': <class \'gluon.html.BODY\'>, \'BR\': <class \'gluon.html.BR\'>, \'BUTTON\': <class \'gluon.html.BUTTON\'>, \'CAT\': <class \'gluon.html.CAT\'>, \'CENTER\': <class \'gluon.html.CENTER\'>, ...}, layer=r\'C:\\web2py\\applications\\sinai\\views\\default/admin.html\')'
p70
sS'func'
p71
S'restricted'
p72
sa(dp73
g62
S'C:\\web2py\\applications\\sinai\\views\\default\\admin.html'
p74
sg64
(dp75
S'index'
p76
S'undefined'
p77
sS'name'
p78
g77
sS'sopt'
p79
g77
sS'editable'
p80
g77
sS'width'
p81
g77
sS'searchoptions'
p82
g77
sS'true'
p83
g77
ssg66
I103
sg67
(dp84
I96
S'response.write(\'\\\',\\n    data: "{}",\\n    datatype: \\\'json\\\',\\n    mtype: \\\'GET\\\',\\n    contentType: "application/json; charset=utf-8",\\n    cellEdit: true,\\n    cellsubmit:\\\'remote\\\',\\n    cellurl: \\\'\', escape=False)'
p85
sI97
S"response.write(URL(r=request,f='call',args=['json','save_cell_versos']))"
p86
sI98
S'response.write(\'\\\',\\n    complete: function(jsondata, stat) {\\n        if (stat == "success") {\\n            var thegrid = jQuery("#list")[0];\\n            thegrid.addJSONData(JSON.parse(jsondata.responseText).d);\\n        }\\n    },\\n\\n    colNames:[\\\'#\\\',\\\'Verso\\\',\\\'Cita\\\',\\\'\\\'],\\n    colModel :[\\n      \\n      {name:\\\'numero\\\', index:\\\'numero\\\',editable:false, width:30,searchoptions:{sopt:[\\\'cn\\\', \\\'nc\\\']}},\\n      {name:\\\'verso\\\', index:\\\'verso\\\',editable:true, width:850,searchoptions:{sopt:[\\\'cn\\\', \\\'nc\\\']}},\\n      {name:\\\'cita\\\', index:\\\'cita\\\',editable:true, width:120,searchoptions:{sopt:[\\\'cn\\\', \\\'nc\\\']}},\\n      {name:\\\'eliminar\\\', index:\\\'eliminar\\\',editable:false, width:100,searchoptions:{sopt:[\\\'cn\\\', \\\'nc\\\']}},\\n      \\n    ],\\n    pager: \\\'#pager_versos\\\',\\n    rowNum:5,\\n    rowList:[5,10,20],\\n    sortname: \\\'numero\\\',\\n    sortorder: \\\'asc\\\',\\n    viewrecords: true,\\n    caption: \\\'Versos B\\xc3\\xadblicos\\\',\\n    altRows:true,\\n    height: \\\'auto\\\',\\n    width: \\\'auto\\\',\\n    \\n \\n  });\\n\\n\\n\\n});\\n</script>\\n\\n<script type="text/javascript" >\\njQuery(document).ready(function(){\\n  jQuery("#list_verses").jqGrid({\\n    url:\\\'\', escape=False)'
p87
sI99
S"response.write(URL(r=request,f='call',args=['json','get_rows_verses']))"
p88
sI100
S'response.write(\'\\\',\\n    data: "{}",\\n    datatype: \\\'json\\\',\\n    mtype: \\\'GET\\\',\\n    contentType: "application/json; charset=utf-8",\\n    cellEdit: false,\\n    cellsubmit:\\\'remote\\\',\\n    cellurl: \\\'\', escape=False)'
p89
sI101
S"response.write(URL(r=request,f='call',args=['json','save_cell']))"
p90
sI102
S'response.write(\'\\\',\\n    complete: function(jsondata, stat) {\\n        if (stat == "success") {\\n            var thegrid = jQuery("#list")[0];\\n            thegrid.addJSONData(JSON.parse(jsondata.responseText).d);\\n        }\\n    },\\n\\n    colNames:[\\\'#\\\',\\\'Verso\\\',\\\'Cita\\\',\\\'\\\'],\\n    colModel :[\\n      \\n      {name:\\\'numero\\\', index:\\\'numero\\\',editable:false, width:30,searchoptions:{sopt:[\\\'cn\\\', \\\'nc\\\']}},\\n      {name:\\\'verso\\\', index:\\\'verso\\\',editable:true, width:800,searchoptions:{sopt:[\\\'cn\\\', \\\'nc\\\']}},\\n      {name:\\\'cita\\\', index:\\\'cita\\\',editable:true, width:120,searchoptions:{sopt:[\\\'cn\\\', \\\'nc\\\']}},\\n      {name:\\\'eliminar\\\', index:\\\'eliminar\\\',editable:false, width:100,searchoptions:{sopt:[\\\'cn\\\', \\\'nc\\\']}},\\n      \\n    ],\\n    pager: \\\'#pager_verses\\\',\\n    rowNum:5,\\n    rowList:[5,10,20],\\n    sortname: \\\'numero\\\',\\n    sortorder: \\\'asc\\\',\\n    viewrecords: true,\\n    caption: \\\'Versos B\\xc3\\xadblicos - Ingl\\xc3\\xa9s\\\',\\n    altRows:true,\\n    height: \\\'auto\\\',\\n    width: \\\'auto\\\',\\n    \\n \\n  });\\n\\n\\n\\n});\\n</script>\\n\\n<ul class="nav nav-tabs">\\n  <li class="active"><a href="#msg" data-toggle="tab">Mensajes Recibidos</a></li>\\n  <li class=""><a href="#vb" data-toggle="tab">Versos B\\xc3\\xadblicos - Espa\\xc3\\xb1ol</a></li>\\n  <li class=""><a href="#vb_en" data-toggle="tab">Versos B\\xc3\\xadblicos - Ingl\\xc3\\xa9s</a></li>\\n  <li class=""><a href="#visits" data-toggle="tab">Visitas a la P\\xc3\\xa1gina</a></li>\\n</ul>\\n\\n<div id="myTabContent" class="tab-content">\\n  <div class="tab-pane fade active in" id="msg">\\n      <hr>\\n      <div class="row box">\\n      <br>\\n        <div class="span12" style="margin-left:32px;">\\n        <table id="list"></table>\\n        <div id="pager"></div>\\n        <br>\\n        </div>\\n      </div><br>\\n  </div>\\n\\n  <div class="tab-pane fade" id="vb">\\n    \\n    <hr>\\n    <div class="row box"><br>\\n      <div class="span12" style="margin-left:32px;">\\n      <table id="list_versos"></table>\\n      <div id="pager_versos"></div>\\n      <br>\\n      </div>\\n    </div><br>\\n  </div>\\n\\n  <div class="tab-pane fade" id="vb_en">\\n    <hr>\\n    <div class="row box"><br>\\n      <div class="span12" style="margin-left:32px;">\\n      <table id="list_verses"></table>\\n      <div id="pager_verses"></div>\\n      <br>\\n      </div>\\n    </div><br>\\n\\n  </div>\\n\\n  <div class="tab-pane fade" id="visits">\\n    <hr>\\n    <div class="row box"><br>\\n      <div class="span12" style="margin-left:32px;">\\n        <h3><i class="fa fa-line-chart fa-2x"></i>&nbsp;&nbsp;Visitas a la p\\xc3\\xa1gina: <b> \', escape=False)'
p91
sI103
S'response.write(visits.visits)'
p92
sI104
S"response.write('</b></h3>\\n        <h6>Desde 11/10/2014 <small>(anterior a esa fecha 400 +)</small></h6>\\n        <br>\\n      </div>\\n    </div><br>\\n\\n  </div>\\n  \\n</div>\\n\\n\\n\\n', escape=False)"
p93
sI105
S"response.write('\\n                    ', escape=False)"
p94
sI106
S"response.write('\\n                </div>\\n                ', escape=False)"
p95
sI107
S'if right_sidebar_enabled:'
p96
sI108
S'    response.write(\'\\n<!--    right sidebar --------------------------------------------------------- -->\\n                <div class="col-md-3">\\n                    \', escape=False)'
p97
sI109
S"    response.write('\\n                    ', escape=False)"
p98
sI110
S"    response.write('\\n                </div>\\n                ', escape=False)"
p99
sI111
S'    pass'
p100
sI112
S'response.write(\'\\n            </div>\\n        </main>\\n<!-- Footer =================================================================== -->\\n        <footer id="footer" class="container">\\n            <div class="row">\\n                \', escape=False)'
p101
sI113
S'response.write(\'\\n                <div class="col-xs-6">\\n                    <p>\', escape=False)'
p102
sI94
S'response.write(\'\\\',\\n    complete: function(jsondata, stat) {\\n        if (stat == "success") {\\n            var thegrid = jQuery("#list")[0];\\n            thegrid.addJSONData(JSON.parse(jsondata.responseText).d);\\n        }\\n    },\\n\\n    \\n    \\n\\n    colNames:[\\\'Recibido\\\',\\\'Nombre\\\',\\\'Correo\\\',\\\'Telefono\\\',\\\'Mensaje\\\',\\\'\\\'],\\n    colModel :[\\n      {name:\\\'created_on\\\', index:\\\'created_on\\\',editable:false, width:150,searchoptions:{sopt:[\\\'cn\\\', \\\'nc\\\']}},\\n      {name:\\\'nombre\\\', index:\\\'nombre\\\',editable:false, width:150,searchoptions:{sopt:[\\\'cn\\\', \\\'nc\\\']}},\\n      {name:\\\'correo\\\', index:\\\'correo\\\',editable:false, width:150,searchoptions:{sopt:[\\\'cn\\\', \\\'nc\\\']}},\\n      {name:\\\'telefono\\\', index:\\\'telefono\\\',editable:false, width:150,searchoptions:{sopt:[\\\'cn\\\', \\\'nc\\\']}},\\n      {name:\\\'mensaje\\\', index:\\\'mensaje\\\',editable:false, width:400,searchoptions:{sopt:[\\\'cn\\\', \\\'nc\\\']}},\\n      {name:\\\'eliminar\\\', index:\\\'eliminar\\\',editable:false, width:100,searchoptions:{sopt:[\\\'cn\\\', \\\'nc\\\']}},\\n      \\n      \\n    ],\\n    pager: \\\'#pager\\\',\\n    rowNum:5,\\n    rowList:[5,10,20],\\n    sortname: \\\'created_on\\\',\\n    sortorder: \\\'desc\\\',\\n    viewrecords: true,\\n    caption: \\\'Mensajes recibidos\\\',\\n    altRows:true,\\n    height: \\\'auto\\\',\\n    width: \\\'auto\\\',\\n    \\n \\n  });\\n\\n\\n\\n});\\n</script>\\n\\n<script type="text/javascript" >\\njQuery(document).ready(function(){\\n  jQuery("#list_versos").jqGrid({\\n    url:\\\'\', escape=False)'
p103
sI95
S"response.write(URL(r=request,f='call',args=['json','get_rows_versos']))"
p104
ssg69
S'()'
p105
sg71
S'<module>'
p106
sasS'pyver'
p107
S'Python 2.7.5: C:\\web2py\\web2py.exe (prefix: )'
p108
sS'session'
p109
g57
(S'sm\t\x00\x00<div><table><tr><td style="font-weight:bold;vertical-align:top;">auth</td><td style="vertical-align:top;">:</td><td><div><table><tr><td style="font-weight:bold;vertical-align:top;">expiration</td><td style="vertical-align:top;">:</td><td><div>3600</div></td></tr><tr><td style="font-weight:bold;vertical-align:top;">hmac_key</td><td style="vertical-align:top;">:</td><td><div>2f9b31a3-0673-4a43-b788-d016a9d60f19</div></td></tr><tr><td style="font-weight:bold;vertical-align:top;">last_visit</td><td style="vertical-align:top;">:</td><td><div>datetime.datetime(2014, 10, 27, 16, 6, 11, 465000)</div></td></tr><tr><td style="font-weight:bold;vertical-align:top;">remember</td><td style="vertical-align:top;">:</td><td><div>False</div></td></tr><tr><td style="font-weight:bold;vertical-align:top;">user</td><td style="vertical-align:top;">:</td><td><div><table><tr><td style="font-weight:bold;vertical-align:top;">email</td><td style="vertical-align:top;">:</td><td><div>ruben@ruben.com</div></td></tr><tr><td style="font-weight:bold;vertical-align:top;">first_name</td><td style="vertical-align:top;">:</td><td><div>Ruben</div></td></tr><tr><td style="font-weight:bold;vertical-align:top;">id</td><td style="vertical-align:top;">:</td><td><div>1L</div></td></tr><tr><td style="font-weight:bold;vertical-align:top;">last_name</td><td style="vertical-align:top;">:</td><td><div>Mu\xc3\xb1oz Morales</div></td></tr><tr><td style="font-weight:bold;vertical-align:top;">registration_id</td><td style="vertical-align:top;">:</td><td><div></div></td></tr><tr><td style="font-weight:bold;vertical-align:top;">registration_key</td><td style="vertical-align:top;">:</td><td><div></div></td></tr><tr><td style="font-weight:bold;vertical-align:top;">reset_password_key</td><td style="vertical-align:top;">:</td><td><div></div></td></tr></table></div></td></tr><tr><td style="font-weight:bold;vertical-align:top;">user_groups</td><td style="vertical-align:top;">:</td><td><div><table><tr><td style="font-weight:bold;vertical-align:top;">1</td><td style="vertical-align:top;">:</td><td><div>admin</div></td></tr></table></div></td></tr></table></div></td></tr><tr><td style="font-weight:bold;vertical-align:top;">flash</td><td style="vertical-align:top;">:</td><td><div>None</div></td></tr><tr><td style="font-weight:bold;vertical-align:top;">visits</td><td style="vertical-align:top;">:</td><td><div>38L</div></td></tr></table></div>'
tRp110
sS'etype'
p111
S"<type 'exceptions.NameError'>"
p112
sS'date'
p113
S'Mon Oct 27 16:07:15 2014'
p114
sS'response'
p115
g57
(S's\xa6\x1f\x00\x00<div><table><tr><td style="font-weight:bold;vertical-align:top;">body</td><td style="vertical-align:top;">:</td><td><div>&lt;cStringIO.StringO object at 0x08015680&gt;</div></td></tr><tr><td style="font-weight:bold;vertical-align:top;">cookies</td><td style="vertical-align:top;">:</td><td><div><table><tr><td style="font-weight:bold;vertical-align:top;">session_id_sinai</td><td style="vertical-align:top;">:</td><td><div>127.0.0.1-06fe836c-e038-447c-bfac-bcc5d95ba5b6<table><tr><td style="font-weight:bold;vertical-align:top;">comment</td><td style="vertical-align:top;">:</td><td><div></div></td></tr><tr><td style="font-weight:bold;vertical-align:top;">domain</td><td style="vertical-align:top;">:</td><td><div></div></td></tr><tr><td style="font-weight:bold;vertical-align:top;">expires</td><td style="vertical-align:top;">:</td><td><div></div></td></tr><tr><td style="font-weight:bold;vertical-align:top;">httponly</td><td style="vertical-align:top;">:</td><td><div></div></td></tr><tr><td style="font-weight:bold;vertical-align:top;">max-age</td><td style="vertical-align:top;">:</td><td><div></div></td></tr><tr><td style="font-weight:bold;vertical-align:top;">path</td><td style="vertical-align:top;">:</td><td><div>/</div></td></tr><tr><td style="font-weight:bold;vertical-align:top;">secure</td><td style="vertical-align:top;">:</td><td><div></div></td></tr><tr><td style="font-weight:bold;vertical-align:top;">version</td><td style="vertical-align:top;">:</td><td><div></div></td></tr></table></div></td></tr></table></div></td></tr><tr><td style="font-weight:bold;vertical-align:top;">delimiters</td><td style="vertical-align:top;">:</td><td><div><table><tr><td><div>{{</div></td></tr><tr><td><div>}}</div></td></tr></table></div></td></tr><tr><td style="font-weight:bold;vertical-align:top;">files</td><td style="vertical-align:top;">:</td><td><div><table><tr><td><div>/sinai/static/js/jquery.js</div></td></tr><tr><td><div>/sinai/static/css/calendar.css</div></td></tr><tr><td><div>/sinai/static/js/calendar.js</div></td></tr><tr><td><div>/sinai/static/js/web2py.js</div></td></tr><tr><td><div>/sinai/static/css/web2py.css</div></td></tr><tr><td><div>/sinai/static/css/bootstrap.min.css</div></td></tr><tr><td><div>/sinai/static/css/bootstrap-theme.min.css</div></td></tr><tr><td><div>/sinai/static/css/web2py-bootstrap3.css</div></td></tr><tr><td><div>/sinai/static/iToggle-master/css/style.css</div></td></tr><tr><td><div>/sinai/static/plugin_jqueryui/jquery-ui-1.8.2/ui/jquery-ui.js</div></td></tr><tr><td><div>/sinai/static/iToggle-master/itoggle.jquery.js_locale</div></td></tr><tr><td><div>/sinai/static/iToggle-master/css/style.css</div></td></tr><tr><td><div>/sinai/static/jquery.jqGrid/js/i18n/grid.locale-es.js</div></td></tr><tr><td><div>/sinai/static/jquery.jqGrid/js/minified/jquery.jqGrid.min.js</div></td></tr><tr><td><div>/sinai/static/jquery.jqGrid/css/ui.jqgrid.css</div></td></tr><tr><td><div>/sinai/static/css/themes/smoothness/jquery-ui.css</div></td></tr><tr><td><div>/sinai/static/css/themes/smoothness/jquery.ui.theme.css</div></td></tr></table></div></td></tr><tr><td style="font-weight:bold;vertical-align:top;">flash</td><td style="vertical-align:top;">:</td><td><div></div></td></tr><tr><td style="font-weight:bold;vertical-align:top;">generic_patterns</td><td style="vertical-align:top;">:</td><td><div><table><tr><td><div>*</div></td></tr></table></div></td></tr><tr><td style="font-weight:bold;vertical-align:top;">google_analytics_id</td><td style="vertical-align:top;">:</td><td><div>None</div></td></tr><tr><td style="font-weight:bold;vertical-align:top;">headers</td><td style="vertical-align:top;">:</td><td><div><table><tr><td style="font-weight:bold;vertical-align:top;">X-Powered-By</td><td style="vertical-align:top;">:</td><td><div>web2py</div></td></tr></table></div></td></tr><tr><td style="font-weight:bold;vertical-align:top;">menu</td><td style="vertical-align:top;">:</td><td><div><table><tr><td><div><table><tr><td><div>Ir a IB Sinai</div></td></tr><tr><td><div>False</div></td></tr><tr><td><div>/sinai/default/index</div></td></tr><tr><td><div><table></table></div></td></tr></table></div></td></tr></table></div></td></tr><tr><td style="font-weight:bold;vertical-align:top;">meta</td><td style="vertical-align:top;">:</td><td><div><table><tr><td style="font-weight:bold;vertical-align:top;">author</td><td style="vertical-align:top;">:</td><td><div>Your Name &lt;you@example.com&gt;</div></td></tr><tr><td style="font-weight:bold;vertical-align:top;">description</td><td style="vertical-align:top;">:</td><td><div>a cool new app</div></td></tr><tr><td style="font-weight:bold;vertical-align:top;">generator</td><td style="vertical-align:top;">:</td><td><div>Web2py Web Framework</div></td></tr><tr><td style="font-weight:bold;vertical-align:top;">keywords</td><td style="vertical-align:top;">:</td><td><div>web2py, python, framework</div></td></tr></table></div></td></tr><tr><td style="font-weight:bold;vertical-align:top;">models_to_run</td><td style="vertical-align:top;">:</td><td><div><table><tr><td><div>^\\w+\\.py$</div></td></tr><tr><td><div>^default/\\w+\\.py$</div></td></tr><tr><td><div>^default/admin/\\w+\\.py$</div></td></tr></table></div></td></tr><tr><td style="font-weight:bold;vertical-align:top;">postprocessing</td><td style="vertical-align:top;">:</td><td><div><table></table></div></td></tr><tr><td style="font-weight:bold;vertical-align:top;">session_client</td><td style="vertical-align:top;">:</td><td><div>127.0.0.1</div></td></tr><tr><td style="font-weight:bold;vertical-align:top;">session_cookie_compression_level</td><td style="vertical-align:top;">:</td><td><div>None</div></td></tr><tr><td style="font-weight:bold;vertical-align:top;">session_cookie_expires</td><td style="vertical-align:top;">:</td><td><div>None</div></td></tr><tr><td style="font-weight:bold;vertical-align:top;">session_cookie_key</td><td style="vertical-align:top;">:</td><td><div>None</div></td></tr><tr><td style="font-weight:bold;vertical-align:top;">session_data_name</td><td style="vertical-align:top;">:</td><td><div>session_data_sinai</div></td></tr><tr><td style="font-weight:bold;vertical-align:top;">session_file</td><td style="vertical-align:top;">:</td><td><div>&lt;open file &#x27;C:\\\\web2py\\\\applications\\\\sinai\\\\sessions\\\\127.0.0.1-06fe836c-e038-447c-bfac-bcc5d95ba5b6&#x27;, mode &#x27;rb+&#x27; at 0x07C17AC8&gt;</div></td></tr><tr><td style="font-weight:bold;vertical-align:top;">session_filename</td><td style="vertical-align:top;">:</td><td><div>C:\\web2py\\applications\\sinai\\sessions\\127.0.0.1-06fe836c-e038-447c-bfac-bcc5d95ba5b6</div></td></tr><tr><td style="font-weight:bold;vertical-align:top;">session_hash</td><td style="vertical-align:top;">:</td><td><div>4abf0bf464438cad694d9bd8a518c397</div></td></tr><tr><td style="font-weight:bold;vertical-align:top;">session_id</td><td style="vertical-align:top;">:</td><td><div>127.0.0.1-06fe836c-e038-447c-bfac-bcc5d95ba5b6</div></td></tr><tr><td style="font-weight:bold;vertical-align:top;">session_id_name</td><td style="vertical-align:top;">:</td><td><div>session_id_sinai</div></td></tr><tr><td style="font-weight:bold;vertical-align:top;">session_locked</td><td style="vertical-align:top;">:</td><td><div>True</div></td></tr><tr><td style="font-weight:bold;vertical-align:top;">session_masterapp</td><td style="vertical-align:top;">:</td><td><div>sinai</div></td></tr><tr><td style="font-weight:bold;vertical-align:top;">session_new</td><td style="vertical-align:top;">:</td><td><div>False</div></td></tr><tr><td style="font-weight:bold;vertical-align:top;">session_storage_type</td><td style="vertical-align:top;">:</td><td><div>file</div></td></tr><tr><td style="font-weight:bold;vertical-align:top;">status</td><td style="vertical-align:top;">:</td><td><div>200</div></td></tr><tr><td style="font-weight:bold;vertical-align:top;">subtitle</td><td style="vertical-align:top;">:</td><td><div></div></td></tr><tr><td style="font-weight:bold;vertical-align:top;">view</td><td style="vertical-align:top;">:</td><td><div>default/admin.html</div></td></tr></table></div>'
tRp116
sS'locals'
p117
(dp118
S'Service'
p119
S"<class 'gluon.tools.Service'>"
p120
sS'OBJECT'
p121
S"<class 'gluon.html.OBJECT'>"
p122
sS'form_versos'
p123
S'<gluon.html.DIV object>'
p124
sS'SQLDB'
p125
S"<class 'gluon.dal.DAL'>"
p126
sg109
S"<Storage {'_formkey[login]': ['e8a262ef-154e-4df...ce4a4a5d76990eaa4e87b70c81dfd73', 'visits': 38L}>"
p127
sS'LINK'
p128
S"<class 'gluon.html.LINK'>"
p129
sS'BR'
p130
S"<class 'gluon.html.BR'>"
p131
sS'local_import'
p132
S'<function <lambda>>'
p133
sS'OPTGROUP'
p134
S"<class 'gluon.html.OPTGROUP'>"
p135
sS'__package__'
p136
S'None'
p137
sS'PRE'
p138
S"<class 'gluon.html.PRE'>"
p139
sS'IS_INT_IN_RANGE'
p140
S"<class 'gluon.validators.IS_INT_IN_RANGE'>"
p141
sS'left_sidebar_enabled'
p142
S'False'
p143
sS'IS_LOWER'
p144
S"<class 'gluon.validators.IS_LOWER'>"
p145
sS'IS_STRONG'
p146
S"<class 'gluon.validators.IS_STRONG'>"
p147
sS'cache'
p148
S'<gluon.cache.Cache object>'
p149
sS'IS_IN_DB'
p150
S"<class 'gluon.validators.IS_IN_DB'>"
p151
sS'TAG'
p152
S'<gluon.html.__TAG__ object>'
p153
sS'SQLField'
p154
S"<class 'gluon.dal.Field'>"
p155
sS'mail'
p156
S'<gluon.tools.Mail object>'
p157
sS'BODY'
p158
S"<class 'gluon.html.BODY'>"
p159
sS'IS_DATE_IN_RANGE'
p160
S"<class 'gluon.validators.IS_DATE_IN_RANGE'>"
p161
sS'IFRAME'
p162
S"<class 'gluon.html.IFRAME'>"
p163
sS'URL'
p164
S'<function URL>'
p165
sS'__file__'
p166
S"r'C:\\web2py\\applications\\sinai\\views\\default/admin.html'"
p167
sS'db'
p168
S'<DAL uri="sqlite://storage.sqlite">'
p169
sS'auth'
p170
S'<gluon.tools.Auth object>'
p171
sS'P'
S"<class 'gluon.html.P'>"
p172
sS'TFOOT'
p173
S"<class 'gluon.html.TFOOT'>"
p174
sS'XHTML'
p175
S"<class 'gluon.html.XHTML'>"
p176
sS'ON'
p177
S'True'
p178
sS'OL'
p179
S"<class 'gluon.html.OL'>"
p180
sS'TEXTAREA'
p181
S"<class 'gluon.html.TEXTAREA'>"
p182
sS'MENU'
p183
S"<class 'gluon.html.MENU'>"
p184
sS'IS_IMAGE'
p185
S"<class 'gluon.validators.IS_IMAGE'>"
p186
sS'EM'
p187
S"<class 'gluon.html.EM'>"
p188
sS'CODE'
p189
S"<class 'gluon.html.CODE'>"
p190
sS'HTTP'
p191
S"<class 'gluon.http.HTTP'>"
p192
sS'HR'
p193
S"<class 'gluon.html.HR'>"
p194
sS'IS_DATETIME'
p195
S"<class 'gluon.validators.IS_DATETIME'>"
p196
sS'STYLE'
p197
S"<class 'gluon.html.STYLE'>"
p198
sS'LABEL'
p199
S"<class 'gluon.html.LABEL'>"
p200
sS'CLEANUP'
p201
S"<class 'gluon.validators.CLEANUP'>"
p202
sS'plugins'
p203
S'<gluon.tools.PluginManager object>'
p204
sS'SELECT'
p205
S"<class 'gluon.html.SELECT'>"
p206
sS'use_janrain'
p207
S'<function use_janrain>'
p208
sS'CENTER'
p209
S"<class 'gluon.html.CENTER'>"
p210
sS'prettydate'
p211
S'<function prettydate>'
p212
sS'Crud'
p213
S"<class 'gluon.tools.Crud'>"
p214
sS'Auth'
p215
S"<class 'gluon.tools.Auth'>"
p216
sS'DEVELOPMENT_MENU'
p217
g143
sS'current'
p218
S'<thread._local object>'
p219
sS'__builtins__'
p220
S"{'ArithmeticError': <type 'exceptions.ArithmeticError'>, 'AssertionError': <type 'exceptions.AssertionError'>, 'AttributeError': <type 'exceptions.AttributeError'>, 'BaseException': <type 'exceptions.BaseException'>, 'BufferError': <type 'exceptions.BufferError'>, 'BytesWarning': <type 'exceptions.BytesWarning'>, 'DeprecationWarning': <type 'exceptions.DeprecationWarning'>, 'EOFError': <type 'exceptions.EOFError'>, 'Ellipsis': Ellipsis, 'EnvironmentError': <type 'exceptions.EnvironmentError'>, ...}"
p221
sS'HTML'
p222
S"<class 'gluon.html.HTML'>"
p223
sS'SQLFORM'
p224
S"<class 'gluon.sqlhtml.SQLFORM'>"
p225
sS'LOAD'
p226
S'<function LOAD>'
p227
sS'redirect'
p228
S'<function redirect>'
p229
sS'FIELDSET'
p230
S"<class 'gluon.html.FIELDSET'>"
p231
sS'IS_EQUAL_TO'
p232
S"<class 'gluon.validators.IS_EQUAL_TO'>"
p233
sS'embed64'
p234
S'<function embed64>'
p235
sS'IS_LIST_OF'
p236
S"<class 'gluon.validators.IS_LIST_OF'>"
p237
sS'INPUT'
p238
S"<class 'gluon.html.INPUT'>"
p239
sS'EMBED'
p240
S"<class 'gluon.html.EMBED'>"
p241
sS'pageStatistics'
p242
S'<__restricted__.PageStatistics instance>'
p243
sS'H2'
p244
S"<class 'gluon.html.H2'>"
p245
sS'H3'
p246
S"<class 'gluon.html.H3'>"
p247
sS'BUTTON'
p248
S"<class 'gluon.html.BUTTON'>"
p249
sS'H1'
p250
S"<class 'gluon.html.H1'>"
p251
sS'H6'
p252
S"<class 'gluon.html.H6'>"
p253
sS'H4'
p254
S"<class 'gluon.html.H4'>"
p255
sS'H5'
p256
S"<class 'gluon.html.H5'>"
p257
sS'UL'
p258
S"<class 'gluon.html.UL'>"
p259
sS'IS_UPPER'
p260
S"<class 'gluon.validators.IS_UPPER'>"
p261
sS'xmlescape'
p262
S'<function xmlescape>'
p263
sS'IS_TIME'
p264
S"<class 'gluon.validators.IS_TIME'>"
p265
sS'OPTION'
p266
S"<class 'gluon.html.OPTION'>"
p267
sS'TITLE'
p268
S"<class 'gluon.html.TITLE'>"
p269
sS'CRYPT'
p270
S"<class 'gluon.validators.CRYPT'>"
p271
sS'IS_EMPTY_OR'
p272
S"<class 'gluon.validators.IS_EMPTY_OR'>"
p273
sS'MARKMIN'
p274
S"<class 'gluon.html.MARKMIN'>"
p275
sS'__name__'
p276
S"'__restricted__'"
p277
sS'STRONG'
p278
S"<class 'gluon.html.STRONG'>"
p279
sS'COL'
p280
S"<class 'gluon.html.COL'>"
p281
sS'mc1'
p282
S"'col-md-9'"
p283
sS'mc0'
p284
S"'col-md-12'"
p285
sS'service'
p286
S'<gluon.tools.Service object>'
p287
sS'SCRIPT'
p288
S"<class 'gluon.html.SCRIPT'>"
p289
sS'_'
S'<function _>'
p290
sS'TABLE'
p291
S"<class 'gluon.html.TABLE'>"
p292
sS'IS_IPV4'
p293
S"<class 'gluon.validators.IS_IPV4'>"
p294
sS'IS_LENGTH'
p295
S"<class 'gluon.validators.IS_LENGTH'>"
p296
sS'IS_IPV6'
p297
S"<class 'gluon.validators.IS_IPV6'>"
p298
sS'XML'
p299
S"<class 'gluon.html.XML'>"
p300
sS'B'
S"<class 'gluon.html.B'>"
p301
sS'IMG'
p302
S"<class 'gluon.html.IMG'>"
p303
sS'SQLTABLE'
p304
S"<class 'gluon.sqlhtml.SQLTABLE'>"
p305
sS'IS_MATCH'
p306
S"<class 'gluon.validators.IS_MATCH'>"
p307
sS'IS_ALPHANUMERIC'
p308
S"<class 'gluon.validators.IS_ALPHANUMERIC'>"
p309
sS'CAT'
p310
S"<class 'gluon.html.CAT'>"
p311
sS'SPAN'
p312
S"<class 'gluon.html.SPAN'>"
p313
sS'IS_JSON'
p314
S"<class 'gluon.validators.IS_JSON'>"
p315
sS'IS_IPADDRESS'
p316
S"<class 'gluon.validators.IS_IPADDRESS'>"
p317
sS'IS_SLUG'
p318
S"<class 'gluon.validators.IS_SLUG'>"
p319
sg48
S"'\\nA Simple Page Statistics Plugin\\n\\nFilename:   pa...lHits=16548, initialVisits=6541)() # see below:\\n\\n'"
p320
sS'BEAUTIFY'
p321
S"<class 'gluon.html.BEAUTIFY'>"
p322
sS'META'
p323
S"<class 'gluon.html.META'>"
p324
sS'iToggleWidget'
p325
S"<class 'applications.sinai.modules.plugin_jqueryui.iToggleWidget'>"
p326
sS'IS_DATE'
p327
S"<class 'gluon.validators.IS_DATE'>"
p328
sS'IS_EMAIL'
p329
S"<class 'gluon.validators.IS_EMAIL'>"
p330
sS'middle_column'
p331
S"'col-md-12'"
p332
sS'IS_NOT_EMPTY'
p333
S"<class 'gluon.validators.IS_NOT_EMPTY'>"
p334
sS'IS_FLOAT_IN_RANGE'
p335
S"<class 'gluon.validators.IS_FLOAT_IN_RANGE'>"
p336
sS'widget_itoggle'
p337
S'<applications.sinai.modules.plugin_jqueryui.iToggleWidget object>'
p338
sS'TBODY'
p339
S"<class 'gluon.html.TBODY'>"
p340
sS'bs3'
p341
S"<module 'applications.sinai.modules.bootstrap3' from 'applications\\sinai\\modules\\bootstrap3.py'>"
p342
sS'Field'
p343
S"<class 'gluon.dal.Field'>"
p344
sS'mc2'
p345
S"'col-md-6'"
p346
sS'IS_LIST_OF_EMAILS'
p347
S"<class 'gluon.validators.IS_LIST_OF_EMAILS'>"
p348
sS'DIV'
p349
S"<class 'gluon.html.DIV'>"
p350
sS'LEGEND'
p351
S"<class 'gluon.html.LEGEND'>"
p352
sS'COLGROUP'
p353
S"<class 'gluon.html.COLGROUP'>"
p354
sS'DAL'
p355
S"<class 'gluon.dal.DAL'>"
p356
sS'TT'
p357
S"<class 'gluon.html.TT'>"
p358
sS'TR'
p359
S"<class 'gluon.html.TR'>"
p360
sS'LI'
p361
S"<class 'gluon.html.LI'>"
p362
sS'right_sidebar_enabled'
p363
g143
sS'TH'
p364
S"<class 'gluon.html.TH'>"
p365
sS'TD'
p366
S"<class 'gluon.html.TD'>"
p367
sS'PluginManager'
p368
S"<class 'gluon.tools.PluginManager'>"
p369
sS'IS_URL'
p370
S"<class 'gluon.validators.IS_URL'>"
p371
sS'A'
S"<class 'gluon.html.A'>"
p372
sS'HEAD'
p373
S"<class 'gluon.html.HEAD'>"
p374
sS'IS_DATETIME_IN_RANGE'
p375
S"<class 'gluon.validators.IS_DATETIME_IN_RANGE'>"
p376
sS'FORM'
p377
S"<class 'gluon.html.FORM'>"
p378
sS'I'
S"<class 'gluon.html.I'>"
p379
sS'crud'
p380
S'<gluon.tools.Crud object>'
p381
sS'IS_NOT_IN_DB'
p382
S"<class 'gluon.validators.IS_NOT_IN_DB'>"
p383
sg115
S"<Storage {'body': <cStringIO.StringO object at 0...a> at 0x07F62470>, 'view': 'default/admin.html'}>"
p384
sS'THEAD'
p385
S"<class 'gluon.html.THEAD'>"
p386
sS'ANY_OF'
p387
S"<class 'gluon.validators.ANY_OF'>"
p388
sS'IS_NULL_OR'
p389
S"<class 'gluon.validators.IS_EMPTY_OR'>"
p390
sg56
S"<Storage {'_vars': <Storage {'records': []}>, 'f..., 'folder': 'C:\\\\web2py\\\\applications\\\\sinai\\\\'}>"
p391
sS'IS_EXPR'
p392
S"<class 'gluon.validators.IS_EXPR'>"
p393
sS'T'
S'<gluon.languages.translator object>'
p394
sS'IS_IN_SET'
p395
S"<class 'gluon.validators.IS_IN_SET'>"
p396
sS'IS_UPLOAD_FILENAME'
p397
S"<class 'gluon.validators.IS_UPLOAD_FILENAME'>"
p398
sS'PageStatistics'
p399
S'<class __restricted__.PageStatistics>'
p400
sS'IS_DECIMAL_IN_RANGE'
p401
S"<class 'gluon.validators.IS_DECIMAL_IN_RANGE'>"
p402
sssS'traceback'
p403
S'Traceback (most recent call last):\n  File "/home/mdipierro/make_web2py/web2py/gluon/restricted.py", line 217, in restricted\n  File "C:\\web2py\\applications\\sinai\\views\\default/admin.html", line 103, in <module>\n    {name:\'cita\', index:\'cita\',editable:true, width:120,searchoptions:{sopt:[\'cn\', \'nc\']}},\nNameError: name \'visits\' is not defined\n'
p404
s.